kf8asm-2.0.0                    key.asm                                  PAGE  1


LOC  OBJECT CODE     LINE SOURCE TEXT
  VALUE
 
               00001 ;--------------------------------------------------------
               00002 ; File Created by ChiponCC : ChipON  inc.
               00003 ;--------------------------------------------------------
               00004 ; chipon port for the 16-bit core
               00005 ;--------------------------------------------------------
               00006 ;       .file   "../key.c"
               00007         .radix dec
               00008         .include "kf8a100eng.inc"
               00001 ;************************************************************
               00002 ;       Header file for the KungFu8
               00003 ;       KF8A100ENG
               00004 ;       Microcontroller
               00005 ;
               00006 ;       Copyright 2012-2020 ChipON, All rights reserved
               00007 ;************************************************************
  00000001     00008 T0                      .EQU                 0x01
  00000002     00009 PCL                     .EQU                 0x02
  00000003     00010 PSW                     .EQU                 0x03
  00000005     00011 P0                      .EQU                 0x05
  00000006     00012 P2                      .EQU                 0x06
  00000007     00013 P1                      .EQU                 0x07
  0000000A     00014 PCH                     .EQU                 0x0A
  0000000B     00015 INTCTL                  .EQU                 0x0B
  0000000C     00016 EIF1                    .EQU                 0x0C
  0000000D     00017 EIF2                    .EQU                 0x0D
  0000000E     00018 T1L                     .EQU                 0x0E
  0000000F     00019 T1H                     .EQU                 0x0F
  00000010     00020 T1CTL                   .EQU                 0x10
  00000013     00021 PWM1L                   .EQU                 0x13
  00000015     00022 PWMCTL                  .EQU                 0x15
  00000016     00023 PP1                     .EQU                 0x16
  00000017     00024 BANK                    .EQU                 0x17
  00000019     00025 C1CTL                   .EQU                 0x19
  0000001A     00026 VDACS                   .EQU                 0x1A
  0000001B     00027 AMPCTL                  .EQU                 0x1B
  0000001D     00028 ANSEH                   .EQU                 0x1D
  0000001E     00029 ADCDATA0H               .EQU                 0x1E
  0000001F     00030 ADCCTL0                 .EQU                 0x1F
  00000020     00031 AMPDT                   .EQU                 0x20
  00000021     00032 OPTR                    .EQU                 0x21
  00000022     00033 IP0                     .EQU                 0x22
  00000023     00034 IP1                     .EQU                 0x23
  00000024     00035 IP2                     .EQU                 0x24
  00000025     00036 TR0                     .EQU                 0x25
  00000026     00037 TR2                     .EQU                 0x26
  00000027     00038 TR1                     .EQU                 0x27
  00000028     00039 OSCSTA                  .EQU                 0x28
  00000029     00040 IP3                     .EQU                 0x29
  0000002A     00041 VRECAL1                 .EQU                 0x2A
  0000002B     00042 VRECTL                  .EQU                 0x2B
  0000002C     00043 EIE1                    .EQU                 0x2C
  0000002D     00044 EIE2                    .EQU                 0x2D
  0000002E     00045 PCTL                    .EQU                 0x2E
  0000002F     00046 OSCCTL                  .EQU                 0x2F
kf8asm-2.0.0                    key.asm                                  PAGE  2


LOC  OBJECT CODE     LINE SOURCE TEXT
  VALUE
 
  00000030     00047 OSCCAL0                 .EQU                 0x30
  00000031     00048 ANSEL                   .EQU                 0x31
  00000032     00049 PP2                     .EQU                 0x32
  00000033     00050 PWM2L                   .EQU                 0x33
  00000035     00051 PUR0                    .EQU                 0x35
  00000036     00052 IOCL                    .EQU                 0x36
  00000037     00053 OSCCAL1                 .EQU                 0x37
  00000038     00054 NVMDATAH                .EQU                 0x38
  00000039     00055 NVMDATAL                .EQU                 0x39
  0000003A     00056 NVMADDRH                .EQU                 0x3A
  0000003B     00057 NVMADDRL                .EQU                 0x3B
  0000003C     00058 NVMCTL0                 .EQU                 0x3C
  0000003D     00059 NVMCTL1                 .EQU                 0x3D
  0000003E     00060 ADCDATA0L               .EQU                 0x3E
  0000003F     00061 ADCCTL1                 .EQU                 0x3F
  00000045     00062 P0LR                    .EQU                 0x45
  00000046     00063 P2LR                    .EQU                 0x46
  00000047     00064 P1LR                    .EQU                 0x47
  0000004A     00065 EIE3                    .EQU                 0x4A
  0000004B     00066 EIF3                    .EQU                 0x4B
  0000004C     00067 OSCCAL2                 .EQU                 0x4C
  0000004D     00068 OSCCAL3                 .EQU                 0x4D
  0000004E     00069 T3CTL                   .EQU                 0x4E
  0000004F     00070 T3L                     .EQU                 0x4F
  00000053     00071 CTCTL0                  .EQU                 0x53
  0000005F     00072 T3H                     .EQU                 0x5F
  00000060     00073 PUR1                    .EQU                 0x60
  00000061     00074 PUR2                    .EQU                 0x61
  00000064     00075 CTCTL1                  .EQU                 0x64
  00000067     00076 INTEDGCTL               .EQU                 0x67
  00000112     00077 VDAC                    .EQU                 0x112
  00000113     00078 VRES                    .EQU                 0x113
  00000115     00079 C1CAL                   .EQU                 0x115
  00000120     00080 RSCTL                   .EQU                 0x120
  00000121     00081 TXSDR                   .EQU                 0x121
  00000122     00082 RXSDR                   .EQU                 0x122
  00000123     00083 BRCTL                   .EQU                 0x123
  00000124     00084 TSCTL                   .EQU                 0x124
  00000125     00085 EUBRGL                  .EQU                 0x125
  00000126     00086 EUBRGH                  .EQU                 0x126
  00000128     00087 SSCICTL0                .EQU                 0x128
  0000012A     00088 SSCICTL1                .EQU                 0x12A
  0000012B     00089 SSCISTA                 .EQU                 0x12B
  0000012C     00090 SSCIBUFR                .EQU                 0x12C
  0000012E     00091 SSCIADD                 .EQU                 0x12E
  0000012E     00092 SSCIMSK                 .EQU                 0x12E
  0000012F     00093 WDTPS                   .EQU                 0x12F
  0000014A     00094 C1FILTCTL               .EQU                 0x14A
  0000014B     00095 C1FILTPRE               .EQU                 0x14B
  00000159     00096 VRECAL2                 .EQU                 0x159
  0000015A     00097 VRECAL3                 .EQU                 0x15A
  0000015B     00098 CTCTL2                  .EQU                 0x15B
  00000160     00099 T4L                     .EQU                 0x160
  00000161     00100 T4H                     .EQU                 0x161
kf8asm-2.0.0                    key.asm                                  PAGE  3


LOC  OBJECT CODE     LINE SOURCE TEXT
  VALUE
 
  00000162     00101 T4REL                   .EQU                 0x162
  00000163     00102 T4REH                   .EQU                 0x163
  00000164     00103 T4CTL                   .EQU                 0x164
  00000165     00104 RC32KCAL                .EQU                 0x165
               00105 
               00106 
               00107 ;  03H  PSW   Bits-------------------------------------
  00000004     00108 TO                      .EQU                4
  00000003     00109 PD                      .EQU                3
  00000002     00110 Z                       .EQU                2
  00000001     00111 DC                      .EQU                1
  00000000     00112 CY                      .EQU                0
  00000004     00113 _TO                     .EQU                4
  00000003     00114 _PD                     .EQU                3
  00000002     00115 _Z                      .EQU                2
  00000001     00116 _DC                     .EQU                1
  00000000     00117 _CY                     .EQU                0
               00118 
               00119 ;  05H  P0   Bits-------------------------------------
  00000005     00120 P05                     .EQU                5
  00000004     00121 P04                     .EQU                4
  00000003     00122 P03                     .EQU                3
  00000002     00123 P02                     .EQU                2
  00000001     00124 P01                     .EQU                1
  00000000     00125 P00                     .EQU                0
  00000005     00126 _P05                    .EQU                5
  00000004     00127 _P04                    .EQU                4
  00000003     00128 _P03                    .EQU                3
  00000002     00129 _P02                    .EQU                2
  00000001     00130 _P01                    .EQU                1
  00000000     00131 _P00                    .EQU                0
               00132 
               00133 ;  06H  P2   Bits-------------------------------------
  00000003     00134 P23                     .EQU                3
  00000002     00135 P22                     .EQU                2
  00000001     00136 P21                     .EQU                1
  00000000     00137 P20                     .EQU                0
  00000003     00138 _P23                    .EQU                3
  00000002     00139 _P22                    .EQU                2
  00000001     00140 _P21                    .EQU                1
  00000000     00141 _P20                    .EQU                0
               00142 
               00143 ;  07H  P1   Bits-------------------------------------
  00000007     00144 P17                     .EQU                7
  00000006     00145 P16                     .EQU                6
  00000005     00146 P15                     .EQU                5
  00000004     00147 P14                     .EQU                4
  00000003     00148 P13                     .EQU                3
  00000002     00149 P12                     .EQU                2
  00000001     00150 P11                     .EQU                1
  00000000     00151 P10                     .EQU                0
  00000007     00152 _P17                    .EQU                7
  00000006     00153 _P16                    .EQU                6
  00000005     00154 _P15                    .EQU                5
kf8asm-2.0.0                    key.asm                                  PAGE  4


LOC  OBJECT CODE     LINE SOURCE TEXT
  VALUE
 
  00000004     00155 _P14                    .EQU                4
  00000003     00156 _P13                    .EQU                3
  00000002     00157 _P12                    .EQU                2
  00000001     00158 _P11                    .EQU                1
  00000000     00159 _P10                    .EQU                0
               00160 
               00161 ;  0BH  INTCTL   Bits-------------------------------------
  00000007     00162 AIE                     .EQU                7
  00000006     00163 PUIE                    .EQU                6
  00000005     00164 T0IE                    .EQU                5
  00000004     00165 INT0IE                  .EQU                4
  00000003     00166 P0IE                    .EQU                3
  00000002     00167 T0IF                    .EQU                2
  00000001     00168 INT0IF                  .EQU                1
  00000000     00169 P0IF                    .EQU                0
  00000007     00170 _AIE                    .EQU                7
  00000006     00171 _PUIE                   .EQU                6
  00000005     00172 _T0IE                   .EQU                5
  00000004     00173 _INT0IE                 .EQU                4
  00000003     00174 _P0IE                   .EQU                3
  00000002     00175 _T0IF                   .EQU                2
  00000001     00176 _INT0IF                 .EQU                1
  00000000     00177 _P0IF                   .EQU                0
               00178 
               00179 ;  0BH  INTCTL   Bits-------------------------------------
  00000007     00180 AIEH                    .EQU                7
  00000006     00181 AIEL                    .EQU                6
  00000007     00182 _AIEH                   .EQU                7
  00000006     00183 _AIEL                   .EQU                6
               00184 
               00185 ;  0CH  EIF1   Bits-------------------------------------
  00000006     00186 ADIF                    .EQU                6
  00000005     00187 INT2IF                  .EQU                5
  00000004     00188 INT1IF                  .EQU                4
  00000003     00189 C1IF                    .EQU                3
  00000002     00190 PWM2IF                  .EQU                2
  00000000     00191 T1IF                    .EQU                0
  00000006     00192 _ADIF                   .EQU                6
  00000005     00193 _INT2IF                 .EQU                5
  00000004     00194 _INT1IF                 .EQU                4
  00000003     00195 _C1IF                   .EQU                3
  00000002     00196 _PWM2IF                 .EQU                2
  00000000     00197 _T1IF                   .EQU                0
               00198 
               00199 ;  0DH  EIF2   Bits-------------------------------------
  00000007     00200 T3IF                    .EQU                7
  00000005     00201 RCIF                    .EQU                5
  00000004     00202 TXIF                    .EQU                4
  00000001     00203 BCLIF                   .EQU                1
  00000000     00204 SSCIIF                  .EQU                0
  00000007     00205 _T3IF                   .EQU                7
  00000005     00206 _RCIF                   .EQU                5
  00000004     00207 _TXIF                   .EQU                4
  00000001     00208 _BCLIF                  .EQU                1
kf8asm-2.0.0                    key.asm                                  PAGE  5


LOC  OBJECT CODE     LINE SOURCE TEXT
  VALUE
 
  00000000     00209 _SSCIIF                 .EQU                0
               00210 
               00211 ;  10H  T1CTL   Bits-------------------------------------
  00000007     00212 T1RLD                   .EQU                7
  00000006     00213 T1GC                    .EQU                6
  00000005     00214 T1CKS1                  .EQU                5
  00000004     00215 T1CKS0                  .EQU                4
  00000003     00216 T1OSCEN                 .EQU                3
  00000002     00217 T1SY                    .EQU                2
  00000001     00218 T1CS                    .EQU                1
  00000000     00219 T1ON                    .EQU                0
  00000007     00220 _T1RLD                  .EQU                7
  00000006     00221 _T1GC                   .EQU                6
  00000005     00222 _T1CKS1                 .EQU                5
  00000004     00223 _T1CKS0                 .EQU                4
  00000003     00224 _T1OSCEN                .EQU                3
  00000002     00225 _T1SY                   .EQU                2
  00000001     00226 _T1CS                   .EQU                1
  00000000     00227 _T1ON                   .EQU                0
               00228 
               00229 ;  15H  PWMCTL   Bits-------------------------------------
  00000004     00230 PWM2ON                  .EQU                4
  00000000     00231 PWM1ON                  .EQU                0
  00000004     00232 _PWM2ON                 .EQU                4
  00000000     00233 _PWM1ON                 .EQU                0
               00234 
               00235 ;  17H  BANK   Bits-------------------------------------
  00000003     00236 PR3                     .EQU                3
  00000002     00237 PR2                     .EQU                2
  00000001     00238 PR1                     .EQU                1
  00000000     00239 PR0                     .EQU                0
  00000003     00240 _PR3                    .EQU                3
  00000002     00241 _PR2                    .EQU                2
  00000001     00242 _PR1                    .EQU                1
  00000000     00243 _PR0                    .EQU                0
               00244 
               00245 ;  19H  C1CTL   Bits-------------------------------------
  00000007     00246 C1OE                    .EQU                7
  00000006     00247 C1MOD                   .EQU                6
  00000003     00248 C1CALEN                 .EQU                3
  00000002     00249 C1CALSET                .EQU                2
  00000001     00250 C1OUT                   .EQU                1
  00000000     00251 C1EN                    .EQU                0
  00000007     00252 _C1OE                   .EQU                7
  00000006     00253 _C1MOD                  .EQU                6
  00000003     00254 _C1CALEN                .EQU                3
  00000002     00255 _C1CALSET               .EQU                2
  00000001     00256 _C1OUT                  .EQU                1
  00000000     00257 _C1EN                   .EQU                0
               00258 
               00259 ;  1AH  VDACS   Bits-------------------------------------
  00000006     00260 VCEN                    .EQU                6
  00000006     00261 _VCEN                   .EQU                6
               00262 
kf8asm-2.0.0                    key.asm                                  PAGE  6


LOC  OBJECT CODE     LINE SOURCE TEXT
  VALUE
 
               00263 ;  1BH  AMPCTL   Bits-------------------------------------
  00000007     00264 CALID                   .EQU                7
  00000005     00265 INPS1                   .EQU                5
  00000004     00266 INPS0                   .EQU                4
  00000001     00267 CALIEN                  .EQU                1
  00000000     00268 AMPON                   .EQU                0
  00000007     00269 _CALID                  .EQU                7
  00000005     00270 _INPS1                  .EQU                5
  00000004     00271 _INPS0                  .EQU                4
  00000001     00272 _CALIEN                 .EQU                1
  00000000     00273 _AMPON                  .EQU                0
               00274 
               00275 ;  1DH  ANSEH   Bits-------------------------------------
  00000007     00276 SSCIPIN                 .EQU                7
  00000005     00277 ANS13                   .EQU                5
  00000004     00278 ANS12                   .EQU                4
  00000003     00279 ANS11                   .EQU                3
  00000002     00280 ANS10                   .EQU                2
  00000001     00281 ANS9                    .EQU                1
  00000000     00282 ANS8                    .EQU                0
  00000007     00283 _SSCIPIN                .EQU                7
  00000005     00284 _ANS13                  .EQU                5
  00000004     00285 _ANS12                  .EQU                4
  00000003     00286 _ANS11                  .EQU                3
  00000002     00287 _ANS10                  .EQU                2
  00000001     00288 _ANS9                   .EQU                1
  00000000     00289 _ANS8                   .EQU                0
               00290 
               00291 ;  1FH  ADCCTL0   Bits-------------------------------------
  00000007     00292 ADLR                    .EQU                7
  00000005     00293 CHS3                    .EQU                5
  00000004     00294 CHS2                    .EQU                4
  00000003     00295 CHS1                    .EQU                3
  00000002     00296 CHS0                    .EQU                2
  00000001     00297 START                   .EQU                1
  00000000     00298 ADEN                    .EQU                0
  00000007     00299 _ADLR                   .EQU                7
  00000005     00300 _CHS3                   .EQU                5
  00000004     00301 _CHS2                   .EQU                4
  00000003     00302 _CHS1                   .EQU                3
  00000002     00303 _CHS0                   .EQU                2
  00000001     00304 _START                  .EQU                1
  00000000     00305 _ADEN                   .EQU                0
               00306 
               00307 ;  20H  AMPDT   Bits-------------------------------------
  00000007     00308 DT7                     .EQU                7
  00000006     00309 DT6                     .EQU                6
  00000005     00310 DT5                     .EQU                5
  00000004     00311 DT4                     .EQU                4
  00000003     00312 DT3                     .EQU                3
  00000002     00313 DT2                     .EQU                2
  00000001     00314 DT1                     .EQU                1
  00000000     00315 DT0                     .EQU                0
  00000007     00316 _DT7                    .EQU                7
kf8asm-2.0.0                    key.asm                                  PAGE  7


LOC  OBJECT CODE     LINE SOURCE TEXT
  VALUE
 
  00000006     00317 _DT6                    .EQU                6
  00000005     00318 _DT5                    .EQU                5
  00000004     00319 _DT4                    .EQU                4
  00000003     00320 _DT3                    .EQU                3
  00000002     00321 _DT2                    .EQU                2
  00000001     00322 _DT1                    .EQU                1
  00000000     00323 _DT0                    .EQU                0
               00324 
               00325 ;  21H  OPTR   Bits-------------------------------------
  00000007     00326 PUPH                    .EQU                7
  00000006     00327 INT0SE                  .EQU                6
  00000005     00328 T0CS                    .EQU                5
  00000004     00329 T0SE                    .EQU                4
  00000003     00330 PSA                     .EQU                3
  00000002     00331 PS2                     .EQU                2
  00000001     00332 PS1                     .EQU                1
  00000000     00333 PS0                     .EQU                0
  00000007     00334 _PUPH                   .EQU                7
  00000006     00335 _INT0SE                 .EQU                6
  00000005     00336 _T0CS                   .EQU                5
  00000004     00337 _T0SE                   .EQU                4
  00000003     00338 _PSA                    .EQU                3
  00000002     00339 _PS2                    .EQU                2
  00000001     00340 _PS1                    .EQU                1
  00000000     00341 _PS0                    .EQU                0
               00342 
               00343 ;  22H  IP0   Bits-------------------------------------
  00000002     00344 PT0                     .EQU                2
  00000001     00345 PINT0                   .EQU                1
  00000000     00346 PP0                     .EQU                0
  00000002     00347 _PT0                    .EQU                2
  00000001     00348 _PINT0                  .EQU                1
  00000000     00349 _PP0                    .EQU                0
               00350 
               00351 ;  23H  IP1   Bits-------------------------------------
  00000006     00352 PADC                    .EQU                6
  00000005     00353 PINT2                   .EQU                5
  00000004     00354 PINT1                   .EQU                4
  00000003     00355 PC1                     .EQU                3
  00000002     00356 PPWM2                   .EQU                2
  00000000     00357 PT1                     .EQU                0
  00000006     00358 _PADC                   .EQU                6
  00000005     00359 _PINT2                  .EQU                5
  00000004     00360 _PINT1                  .EQU                4
  00000003     00361 _PC1                    .EQU                3
  00000002     00362 _PPWM2                  .EQU                2
  00000000     00363 _PT1                    .EQU                0
               00364 
               00365 ;  24H  IP2   Bits-------------------------------------
  00000007     00366 PT3                     .EQU                7
  00000005     00367 PRC                     .EQU                5
  00000004     00368 PTX                     .EQU                4
  00000001     00369 PBCL                    .EQU                1
  00000000     00370 PSSCI                   .EQU                0
kf8asm-2.0.0                    key.asm                                  PAGE  8


LOC  OBJECT CODE     LINE SOURCE TEXT
  VALUE
 
  00000007     00371 _PT3                    .EQU                7
  00000005     00372 _PRC                    .EQU                5
  00000004     00373 _PTX                    .EQU                4
  00000001     00374 _PBCL                   .EQU                1
  00000000     00375 _PSSCI                  .EQU                0
               00376 
               00377 ;  25H  TR0   Bits-------------------------------------
  00000005     00378 TR05                    .EQU                5
  00000004     00379 TR04                    .EQU                4
  00000003     00380 TR03                    .EQU                3
  00000002     00381 TR02                    .EQU                2
  00000001     00382 TR01                    .EQU                1
  00000000     00383 TR00                    .EQU                0
  00000005     00384 _TR05                   .EQU                5
  00000004     00385 _TR04                   .EQU                4
  00000003     00386 _TR03                   .EQU                3
  00000002     00387 _TR02                   .EQU                2
  00000001     00388 _TR01                   .EQU                1
  00000000     00389 _TR00                   .EQU                0
               00390 
               00391 ;  26H  TR2   Bits-------------------------------------
  00000003     00392 TR23                    .EQU                3
  00000002     00393 TR22                    .EQU                2
  00000001     00394 TR21                    .EQU                1
  00000000     00395 TR20                    .EQU                0
  00000003     00396 _TR23                   .EQU                3
  00000002     00397 _TR22                   .EQU                2
  00000001     00398 _TR21                   .EQU                1
  00000000     00399 _TR20                   .EQU                0
               00400 
               00401 ;  27H  TR1   Bits-------------------------------------
  00000007     00402 TR17                    .EQU                7
  00000006     00403 TR16                    .EQU                6
  00000005     00404 TR15                    .EQU                5
  00000004     00405 TR14                    .EQU                4
  00000003     00406 TR13                    .EQU                3
  00000002     00407 TR12                    .EQU                2
  00000001     00408 TR11                    .EQU                1
  00000000     00409 TR10                    .EQU                0
  00000007     00410 _TR17                   .EQU                7
  00000006     00411 _TR16                   .EQU                6
  00000005     00412 _TR15                   .EQU                5
  00000004     00413 _TR14                   .EQU                4
  00000003     00414 _TR13                   .EQU                3
  00000002     00415 _TR12                   .EQU                2
  00000001     00416 _TR11                   .EQU                1
  00000000     00417 _TR10                   .EQU                0
               00418 
               00419 ;  28H  OSCSTA   Bits-------------------------------------
  00000006     00420 OSTS                    .EQU                6
  00000005     00421 HTS                     .EQU                5
  00000004     00422 LTS                     .EQU                4
  00000001     00423 SCF1                    .EQU                1
  00000000     00424 SCF0                    .EQU                0
kf8asm-2.0.0                    key.asm                                  PAGE  9


LOC  OBJECT CODE     LINE SOURCE TEXT
  VALUE
 
  00000006     00425 _OSTS                   .EQU                6
  00000005     00426 _HTS                    .EQU                5
  00000004     00427 _LTS                    .EQU                4
  00000001     00428 _SCF1                   .EQU                1
  00000000     00429 _SCF0                   .EQU                0
               00430 
               00431 ;  29H  IP3   Bits-------------------------------------
  00000007     00432 PT4                     .EQU                7
  00000005     00433 POSCFAIL                .EQU                5
  00000007     00434 _PT4                    .EQU                7
  00000005     00435 _POSCFAIL               .EQU                5
               00436 
               00437 ;  2BH  VRECTL   Bits-------------------------------------
  00000007     00438 VRESEL1                 .EQU                7
  00000006     00439 VRESEL0                 .EQU                6
  00000005     00440 VRECALEN                .EQU                5
  00000004     00441 VRECKEN                 .EQU                4
  00000003     00442 VREOE                   .EQU                3
  00000001     00443 VREEN                   .EQU                1
  00000007     00444 _VRESEL1                .EQU                7
  00000006     00445 _VRESEL0                .EQU                6
  00000005     00446 _VRECALEN               .EQU                5
  00000004     00447 _VRECKEN                .EQU                4
  00000003     00448 _VREOE                  .EQU                3
  00000001     00449 _VREEN                  .EQU                1
               00450 
               00451 ;  2CH  EIE1   Bits-------------------------------------
  00000006     00452 ADIE                    .EQU                6
  00000005     00453 INT2IE                  .EQU                5
  00000004     00454 INT1IE                  .EQU                4
  00000003     00455 C1IE                    .EQU                3
  00000002     00456 PWM2IE                  .EQU                2
  00000000     00457 T1IE                    .EQU                0
  00000006     00458 _ADIE                   .EQU                6
  00000005     00459 _INT2IE                 .EQU                5
  00000004     00460 _INT1IE                 .EQU                4
  00000003     00461 _C1IE                   .EQU                3
  00000002     00462 _PWM2IE                 .EQU                2
  00000000     00463 _T1IE                   .EQU                0
               00464 
               00465 ;  2DH  EIE2   Bits-------------------------------------
  00000007     00466 T3IE                    .EQU                7
  00000005     00467 RCIE                    .EQU                5
  00000004     00468 TXIE                    .EQU                4
  00000001     00469 BCLIE                   .EQU                1
  00000000     00470 SSCIIE                  .EQU                0
  00000007     00471 _T3IE                   .EQU                7
  00000005     00472 _RCIE                   .EQU                5
  00000004     00473 _TXIE                   .EQU                4
  00000001     00474 _BCLIE                  .EQU                1
  00000000     00475 _SSCIIE                 .EQU                0
               00476 
               00477 ;  2EH  PCTL   Bits-------------------------------------
  00000004     00478 SLVREN                  .EQU                4
kf8asm-2.0.0                    key.asm                                  PAGE 10


LOC  OBJECT CODE     LINE SOURCE TEXT
  VALUE
 
  00000003     00479 IPEN                    .EQU                3
  00000002     00480 SWDTEN                  .EQU                2
  00000001     00481 POR                     .EQU                1
  00000000     00482 LVR                     .EQU                0
  00000004     00483 _SLVREN                 .EQU                4
  00000003     00484 _IPEN                   .EQU                3
  00000002     00485 _SWDTEN                 .EQU                2
  00000001     00486 _POR                    .EQU                1
  00000000     00487 _LVR                    .EQU                0
               00488 
               00489 ;  2FH  OSCCTL   Bits-------------------------------------
  00000007     00490 CLKOE                   .EQU                7
  00000006     00491 IRCS2                   .EQU                6
  00000005     00492 IRCS1                   .EQU                5
  00000004     00493 IRCS0                   .EQU                4
  00000003     00494 SCS1                    .EQU                3
  00000002     00495 SCS0                    .EQU                2
  00000001     00496 IESO                    .EQU                1
  00000000     00497 FSCM                    .EQU                0
  00000007     00498 _CLKOE                  .EQU                7
  00000006     00499 _IRCS2                  .EQU                6
  00000005     00500 _IRCS1                  .EQU                5
  00000004     00501 _IRCS0                  .EQU                4
  00000003     00502 _SCS1                   .EQU                3
  00000002     00503 _SCS0                   .EQU                2
  00000001     00504 _IESO                   .EQU                1
  00000000     00505 _FSCM                   .EQU                0
               00506 
               00507 ;  31H  ANSEL   Bits-------------------------------------
  00000007     00508 ANS7                    .EQU                7
  00000006     00509 ANS6                    .EQU                6
  00000005     00510 ANS5                    .EQU                5
  00000004     00511 ANS4                    .EQU                4
  00000003     00512 ANS3                    .EQU                3
  00000002     00513 ANS2                    .EQU                2
  00000001     00514 ANS1                    .EQU                1
  00000000     00515 ANS0                    .EQU                0
  00000007     00516 _ANS7                   .EQU                7
  00000006     00517 _ANS6                   .EQU                6
  00000005     00518 _ANS5                   .EQU                5
  00000004     00519 _ANS4                   .EQU                4
  00000003     00520 _ANS3                   .EQU                3
  00000002     00521 _ANS2                   .EQU                2
  00000001     00522 _ANS1                   .EQU                1
  00000000     00523 _ANS0                   .EQU                0
               00524 
               00525 ;  35H  PUR0   Bits-------------------------------------
  00000005     00526 PUR05                   .EQU                5
  00000004     00527 PUR04                   .EQU                4
  00000002     00528 PUR02                   .EQU                2
  00000001     00529 PUR01                   .EQU                1
  00000000     00530 PUR00                   .EQU                0
  00000005     00531 _PUR05                  .EQU                5
  00000004     00532 _PUR04                  .EQU                4
kf8asm-2.0.0                    key.asm                                  PAGE 11


LOC  OBJECT CODE     LINE SOURCE TEXT
  VALUE
 
  00000002     00533 _PUR02                  .EQU                2
  00000001     00534 _PUR01                  .EQU                1
  00000000     00535 _PUR00                  .EQU                0
               00536 
               00537 ;  36H  IOCL   Bits-------------------------------------
  00000005     00538 IOCL5                   .EQU                5
  00000004     00539 IOCL4                   .EQU                4
  00000003     00540 IOCL3                   .EQU                3
  00000002     00541 IOCL2                   .EQU                2
  00000001     00542 IOCL1                   .EQU                1
  00000000     00543 IOCL0                   .EQU                0
  00000005     00544 _IOCL5                  .EQU                5
  00000004     00545 _IOCL4                  .EQU                4
  00000003     00546 _IOCL3                  .EQU                3
  00000002     00547 _IOCL2                  .EQU                2
  00000001     00548 _IOCL1                  .EQU                1
  00000000     00549 _IOCL0                  .EQU                0
               00550 
               00551 ;  3FH  ADCCTL1   Bits-------------------------------------
  00000007     00552 ADCALEN                 .EQU                7
  00000006     00553 ADCS2                   .EQU                6
  00000005     00554 ADCS1                   .EQU                5
  00000004     00555 ADCS0                   .EQU                4
  00000003     00556 VCFG1                   .EQU                3
  00000002     00557 VCFG0                   .EQU                2
  00000000     00558 ADCIM                   .EQU                0
  00000007     00559 _ADCALEN                .EQU                7
  00000006     00560 _ADCS2                  .EQU                6
  00000005     00561 _ADCS1                  .EQU                5
  00000004     00562 _ADCS0                  .EQU                4
  00000003     00563 _VCFG1                  .EQU                3
  00000002     00564 _VCFG0                  .EQU                2
  00000000     00565 _ADCIM                  .EQU                0
               00566 
               00567 ;  45H  P0LR   Bits-------------------------------------
  00000005     00568 P0LR5                   .EQU                5
  00000004     00569 P0LR4                   .EQU                4
  00000002     00570 P0LR2                   .EQU                2
  00000001     00571 P0LR1                   .EQU                1
  00000000     00572 P0LR0                   .EQU                0
  00000005     00573 _P0LR5                  .EQU                5
  00000004     00574 _P0LR4                  .EQU                4
  00000002     00575 _P0LR2                  .EQU                2
  00000001     00576 _P0LR1                  .EQU                1
  00000000     00577 _P0LR0                  .EQU                0
               00578 
               00579 ;  46H  P2LR   Bits-------------------------------------
  00000003     00580 P2LR3                   .EQU                3
  00000002     00581 P2LR2                   .EQU                2
  00000001     00582 P2LR1                   .EQU                1
  00000000     00583 P2LR0                   .EQU                0
  00000003     00584 _P2LR3                  .EQU                3
  00000002     00585 _P2LR2                  .EQU                2
  00000001     00586 _P2LR1                  .EQU                1
kf8asm-2.0.0                    key.asm                                  PAGE 12


LOC  OBJECT CODE     LINE SOURCE TEXT
  VALUE
 
  00000000     00587 _P2LR0                  .EQU                0
               00588 
               00589 ;  47H  P1LR   Bits-------------------------------------
  00000007     00590 P1LR7                   .EQU                7
  00000006     00591 P1LR6                   .EQU                6
  00000005     00592 P1LR5                   .EQU                5
  00000004     00593 P1LR4                   .EQU                4
  00000003     00594 P1LR3                   .EQU                3
  00000002     00595 P1LR2                   .EQU                2
  00000001     00596 P1LR1                   .EQU                1
  00000000     00597 P1LR0                   .EQU                0
  00000007     00598 _P1LR7                  .EQU                7
  00000006     00599 _P1LR6                  .EQU                6
  00000005     00600 _P1LR5                  .EQU                5
  00000004     00601 _P1LR4                  .EQU                4
  00000003     00602 _P1LR3                  .EQU                3
  00000002     00603 _P1LR2                  .EQU                2
  00000001     00604 _P1LR1                  .EQU                1
  00000000     00605 _P1LR0                  .EQU                0
               00606 
               00607 ;  4AH  EIE3   Bits-------------------------------------
  00000007     00608 T4IE                    .EQU                7
  00000005     00609 OSCFAILIE               .EQU                5
  00000007     00610 _T4IE                   .EQU                7
  00000005     00611 _OSCFAILIE              .EQU                5
               00612 
               00613 ;  4BH  EIF3   Bits-------------------------------------
  00000007     00614 T4IF                    .EQU                7
  00000005     00615 OSCFAILIF               .EQU                5
  00000007     00616 _T4IF                   .EQU                7
  00000005     00617 _OSCFAILIF              .EQU                5
               00618 
               00619 ;  4EH  T3CTL   Bits-------------------------------------
  00000007     00620 T3EN                    .EQU                7
  00000006     00621 T3CKS1                  .EQU                6
  00000005     00622 T3CKS0                  .EQU                5
  00000004     00623 T3CS                    .EQU                4
  00000003     00624 PWMS                    .EQU                3
  00000007     00625 _T3EN                   .EQU                7
  00000006     00626 _T3CKS1                 .EQU                6
  00000005     00627 _T3CKS0                 .EQU                5
  00000004     00628 _T3CS                   .EQU                4
  00000003     00629 _PWMS                   .EQU                3
               00630 
               00631 ;  53H  CTCTL0   Bits-------------------------------------
  00000007     00632 CTEN                    .EQU                7
  00000006     00633 CTSTART                 .EQU                6
  00000005     00634 T3CLR                   .EQU                5
  00000004     00635 CTCHSEL4                .EQU                4
  00000003     00636 CTCHSEL3                .EQU                3
  00000002     00637 CTCHSEL2                .EQU                2
  00000001     00638 CTCHSEL1                .EQU                1
  00000000     00639 CTCHSEL0                .EQU                0
  00000007     00640 _CTEN                   .EQU                7
kf8asm-2.0.0                    key.asm                                  PAGE 13


LOC  OBJECT CODE     LINE SOURCE TEXT
  VALUE
 
  00000006     00641 _CTSTART                .EQU                6
  00000005     00642 _T3CLR                  .EQU                5
  00000004     00643 _CTCHSEL4               .EQU                4
  00000003     00644 _CTCHSEL3               .EQU                3
  00000002     00645 _CTCHSEL2               .EQU                2
  00000001     00646 _CTCHSEL1               .EQU                1
  00000000     00647 _CTCHSEL0               .EQU                0
               00648 
               00649 ;  60H  PUR1   Bits-------------------------------------
  00000007     00650 PUR17                   .EQU                7
  00000006     00651 PUR16                   .EQU                6
  00000005     00652 PUR15                   .EQU                5
  00000004     00653 PUR14                   .EQU                4
  00000003     00654 PUR13                   .EQU                3
  00000002     00655 PUR12                   .EQU                2
  00000001     00656 PUR11                   .EQU                1
  00000000     00657 PUR10                   .EQU                0
  00000007     00658 _PUR17                  .EQU                7
  00000006     00659 _PUR16                  .EQU                6
  00000005     00660 _PUR15                  .EQU                5
  00000004     00661 _PUR14                  .EQU                4
  00000003     00662 _PUR13                  .EQU                3
  00000002     00663 _PUR12                  .EQU                2
  00000001     00664 _PUR11                  .EQU                1
  00000000     00665 _PUR10                  .EQU                0
               00666 
               00667 ;  61H  PUR2   Bits-------------------------------------
  00000003     00668 PUR23                   .EQU                3
  00000002     00669 PUR22                   .EQU                2
  00000001     00670 PUR21                   .EQU                1
  00000000     00671 PUR20                   .EQU                0
  00000003     00672 _PUR23                  .EQU                3
  00000002     00673 _PUR22                  .EQU                2
  00000001     00674 _PUR21                  .EQU                1
  00000000     00675 _PUR20                  .EQU                0
               00676 
               00677 ;  64H  CTCTL1   Bits-------------------------------------
  00000007     00678 CTCLKSEL1               .EQU                7
  00000006     00679 CTCLKSEL0               .EQU                6
  00000005     00680 PRSGEN                  .EQU                5
  00000004     00681 PRSGM1                  .EQU                4
  00000003     00682 PRSGM0                  .EQU                3
  00000002     00683 PRSGSTA                 .EQU                2
  00000000     00684 VSEL                    .EQU                0
  00000007     00685 _CTCLKSEL1              .EQU                7
  00000006     00686 _CTCLKSEL0              .EQU                6
  00000005     00687 _PRSGEN                 .EQU                5
  00000004     00688 _PRSGM1                 .EQU                4
  00000003     00689 _PRSGM0                 .EQU                3
  00000002     00690 _PRSGSTA                .EQU                2
  00000000     00691 _VSEL                   .EQU                0
               00692 
               00693 ;  67H  INTEDGCTL   Bits-------------------------------------
  00000007     00694 INT2SE                  .EQU                7
kf8asm-2.0.0                    key.asm                                  PAGE 14


LOC  OBJECT CODE     LINE SOURCE TEXT
  VALUE
 
  00000006     00695 INT1SE                  .EQU                6
  00000000     00696 T1CLKEN                 .EQU                0
  00000007     00697 _INT2SE                 .EQU                7
  00000006     00698 _INT1SE                 .EQU                6
  00000000     00699 _T1CLKEN                .EQU                0
               00700 
               00701 ;  112H  VDAC   Bits-------------------------------------
  00000007     00702 VDAC3                   .EQU                7
  00000006     00703 VDAC2                   .EQU                6
  00000005     00704 VDAC1                   .EQU                5
  00000004     00705 VDAC0                   .EQU                4
  00000007     00706 _VDAC3                  .EQU                7
  00000006     00707 _VDAC2                  .EQU                6
  00000005     00708 _VDAC1                  .EQU                5
  00000004     00709 _VDAC0                  .EQU                4
               00710 
               00711 ;  113H  VRES   Bits-------------------------------------
  00000007     00712 VRES3                   .EQU                7
  00000006     00713 VRES2                   .EQU                6
  00000005     00714 VRES1                   .EQU                5
  00000004     00715 VRES0                   .EQU                4
  00000007     00716 _VRES3                  .EQU                7
  00000006     00717 _VRES2                  .EQU                6
  00000005     00718 _VRES1                  .EQU                5
  00000004     00719 _VRES0                  .EQU                4
               00720 
               00721 ;  115H  C1CAL   Bits-------------------------------------
  00000007     00722 C1DT7                   .EQU                7
  00000006     00723 C1DT6                   .EQU                6
  00000005     00724 C1DT5                   .EQU                5
  00000004     00725 C1DT4                   .EQU                4
  00000003     00726 C1DT3                   .EQU                3
  00000002     00727 C1DT2                   .EQU                2
  00000001     00728 C1DT1                   .EQU                1
  00000000     00729 C1DT0                   .EQU                0
  00000007     00730 _C1DT7                  .EQU                7
  00000006     00731 _C1DT6                  .EQU                6
  00000005     00732 _C1DT5                  .EQU                5
  00000004     00733 _C1DT4                  .EQU                4
  00000003     00734 _C1DT3                  .EQU                3
  00000002     00735 _C1DT2                  .EQU                2
  00000001     00736 _C1DT1                  .EQU                1
  00000000     00737 _C1DT0                  .EQU                0
               00738 
               00739 ;  120H  RSCTL   Bits-------------------------------------
  00000007     00740 SPEN                    .EQU                7
  00000006     00741 RX9                     .EQU                6
  00000005     00742 SRXEN                   .EQU                5
  00000004     00743 CRXEN                   .EQU                4
  00000003     00744 ADREN                   .EQU                3
  00000002     00745 FRER                    .EQU                2
  00000001     00746 OVFER                   .EQU                1
  00000000     00747 RX9D                    .EQU                0
  00000007     00748 _SPEN                   .EQU                7
kf8asm-2.0.0                    key.asm                                  PAGE 15


LOC  OBJECT CODE     LINE SOURCE TEXT
  VALUE
 
  00000006     00749 _RX9                    .EQU                6
  00000005     00750 _SRXEN                  .EQU                5
  00000004     00751 _CRXEN                  .EQU                4
  00000003     00752 _ADREN                  .EQU                3
  00000002     00753 _FRER                   .EQU                2
  00000001     00754 _OVFER                  .EQU                1
  00000000     00755 _RX9D                   .EQU                0
               00756 
               00757 ;  123H  BRCTL   Bits-------------------------------------
  00000007     00758 ABRDOVF                 .EQU                7
  00000006     00759 RCIDLF                  .EQU                6
  00000005     00760 SCKPS                   .EQU                5
  00000004     00761 BRG16                   .EQU                4
  00000002     00762 UARTPIN                 .EQU                2
  00000001     00763 WUEN                    .EQU                1
  00000000     00764 ABRDEN                  .EQU                0
  00000007     00765 _ABRDOVF                .EQU                7
  00000006     00766 _RCIDLF                 .EQU                6
  00000005     00767 _SCKPS                  .EQU                5
  00000004     00768 _BRG16                  .EQU                4
  00000002     00769 _UARTPIN                .EQU                2
  00000001     00770 _WUEN                   .EQU                1
  00000000     00771 _ABRDEN                 .EQU                0
               00772 
               00773 ;  124H  TSCTL   Bits-------------------------------------
  00000007     00774 CSRS                    .EQU                7
  00000006     00775 TX9                     .EQU                6
  00000005     00776 TXEN                    .EQU                5
  00000004     00777 SYNC                    .EQU                4
  00000003     00778 SENDB                   .EQU                3
  00000002     00779 HBRG                    .EQU                2
  00000001     00780 TXSRS                   .EQU                1
  00000000     00781 TX9D                    .EQU                0
  00000007     00782 _CSRS                   .EQU                7
  00000006     00783 _TX9                    .EQU                6
  00000005     00784 _TXEN                   .EQU                5
  00000004     00785 _SYNC                   .EQU                4
  00000003     00786 _SENDB                  .EQU                3
  00000002     00787 _HBRG                   .EQU                2
  00000001     00788 _TXSRS                  .EQU                1
  00000000     00789 _TX9D                   .EQU                0
               00790 
               00791 ;  128H  SSCICTL0   Bits-------------------------------------
  00000007     00792 SSCIWCFL                .EQU                7
  00000006     00793 SSCIOV                  .EQU                6
  00000005     00794 SSCIEN                  .EQU                5
  00000004     00795 SSCICKP                 .EQU                4
  00000003     00796 SSCIMOD3                .EQU                3
  00000002     00797 SSCIMOD2                .EQU                2
  00000001     00798 SSCIMOD1                .EQU                1
  00000000     00799 SSCIMOD0                .EQU                0
  00000007     00800 _SSCIWCFL               .EQU                7
  00000006     00801 _SSCIOV                 .EQU                6
  00000005     00802 _SSCIEN                 .EQU                5
kf8asm-2.0.0                    key.asm                                  PAGE 16


LOC  OBJECT CODE     LINE SOURCE TEXT
  VALUE
 
  00000004     00803 _SSCICKP                .EQU                4
  00000003     00804 _SSCIMOD3               .EQU                3
  00000002     00805 _SSCIMOD2               .EQU                2
  00000001     00806 _SSCIMOD1               .EQU                1
  00000000     00807 _SSCIMOD0               .EQU                0
               00808 
               00809 ;  12AH  SSCICTL1   Bits-------------------------------------
  00000007     00810 SSCICALLEN              .EQU                7
  00000006     00811 SSCIACKSTA              .EQU                6
  00000005     00812 SSCIACKDAT              .EQU                5
  00000004     00813 SSCIACKEN               .EQU                4
  00000003     00814 SSCIRCEN                .EQU                3
  00000002     00815 STOPEN                  .EQU                2
  00000001     00816 RESTARTEN               .EQU                1
  00000000     00817 STARTEN                 .EQU                0
  00000007     00818 _SSCICALLEN             .EQU                7
  00000006     00819 _SSCIACKSTA             .EQU                6
  00000005     00820 _SSCIACKDAT             .EQU                5
  00000004     00821 _SSCIACKEN              .EQU                4
  00000003     00822 _SSCIRCEN               .EQU                3
  00000002     00823 _STOPEN                 .EQU                2
  00000001     00824 _RESTARTEN              .EQU                1
  00000000     00825 _STARTEN                .EQU                0
               00826 
               00827 ;  12BH  SSCISTA   Bits-------------------------------------
  00000005     00828 SSCIDA                  .EQU                5
  00000004     00829 SSCISTOP                .EQU                4
  00000003     00830 SSCISTART               .EQU                3
  00000002     00831 SSCIRW                  .EQU                2
  00000001     00832 SSCIUA                  .EQU                1
  00000000     00833 SSCIBUF                 .EQU                0
  00000005     00834 _SSCIDA                 .EQU                5
  00000004     00835 _SSCISTOP               .EQU                4
  00000003     00836 _SSCISTART              .EQU                3
  00000002     00837 _SSCIRW                 .EQU                2
  00000001     00838 _SSCIUA                 .EQU                1
  00000000     00839 _SSCIBUF                .EQU                0
               00840 
               00841 ;  12EH  SSCIMSK   Bits-------------------------------------
  00000007     00842 SSCIMSK7                .EQU                7
  00000006     00843 SSCIMSK6                .EQU                6
  00000005     00844 SSCIMSK5                .EQU                5
  00000004     00845 SSCIMSK4                .EQU                4
  00000003     00846 SSCIMSK3                .EQU                3
  00000002     00847 SSCIMSK2                .EQU                2
  00000001     00848 SSCIMSK1                .EQU                1
  00000000     00849 SSCIMSK0                .EQU                0
  00000007     00850 _SSCIMSK7               .EQU                7
  00000006     00851 _SSCIMSK6               .EQU                6
  00000005     00852 _SSCIMSK5               .EQU                5
  00000004     00853 _SSCIMSK4               .EQU                4
  00000003     00854 _SSCIMSK3               .EQU                3
  00000002     00855 _SSCIMSK2               .EQU                2
  00000001     00856 _SSCIMSK1               .EQU                1
kf8asm-2.0.0                    key.asm                                  PAGE 17


LOC  OBJECT CODE     LINE SOURCE TEXT
  VALUE
 
  00000000     00857 _SSCIMSK0               .EQU                0
               00858 
               00859 ;  12FH  WDTPS   Bits-------------------------------------
  00000003     00860 WDTPS3                  .EQU                3
  00000002     00861 WDTPS2                  .EQU                2
  00000001     00862 WDTPS1                  .EQU                1
  00000000     00863 WDTPS0                  .EQU                0
  00000003     00864 _WDTPS3                 .EQU                3
  00000002     00865 _WDTPS2                 .EQU                2
  00000001     00866 _WDTPS1                 .EQU                1
  00000000     00867 _WDTPS0                 .EQU                0
               00868 
               00869 ;  14AH  C1FILTCTL   Bits-------------------------------------
  00000007     00870 INV1                    .EQU                7
  00000006     00871 WEN1                    .EQU                6
  00000005     00872 FEN1                    .EQU                5
  00000002     00873 F1CNT2                  .EQU                2
  00000001     00874 F1CNT1                  .EQU                1
  00000000     00875 F1CNT0                  .EQU                0
  00000007     00876 _INV1                   .EQU                7
  00000006     00877 _WEN1                   .EQU                6
  00000005     00878 _FEN1                   .EQU                5
  00000002     00879 _F1CNT2                 .EQU                2
  00000001     00880 _F1CNT1                 .EQU                1
  00000000     00881 _F1CNT0                 .EQU                0
               00882 
               00883 ;  14BH  C1FILTPRE   Bits-------------------------------------
  00000007     00884 FP17                    .EQU                7
  00000006     00885 FP16                    .EQU                6
  00000005     00886 FP15                    .EQU                5
  00000004     00887 FP14                    .EQU                4
  00000003     00888 FP13                    .EQU                3
  00000002     00889 FP12                    .EQU                2
  00000001     00890 FP11                    .EQU                1
  00000000     00891 FP10                    .EQU                0
  00000007     00892 _FP17                   .EQU                7
  00000006     00893 _FP16                   .EQU                6
  00000005     00894 _FP15                   .EQU                5
  00000004     00895 _FP14                   .EQU                4
  00000003     00896 _FP13                   .EQU                3
  00000002     00897 _FP12                   .EQU                2
  00000001     00898 _FP11                   .EQU                1
  00000000     00899 _FP10                   .EQU                0
               00900 
               00901 ;  15BH  CTCTL2   Bits-------------------------------------
  00000004     00902 CTMODE                  .EQU                4
  00000003     00903 RSEL3                   .EQU                3
  00000002     00904 RSEL2                   .EQU                2
  00000001     00905 RSEL1                   .EQU                1
  00000000     00906 RSEL0                   .EQU                0
  00000004     00907 _CTMODE                 .EQU                4
  00000003     00908 _RSEL3                  .EQU                3
  00000002     00909 _RSEL2                  .EQU                2
  00000001     00910 _RSEL1                  .EQU                1
kf8asm-2.0.0                    key.asm                                  PAGE 18


LOC  OBJECT CODE     LINE SOURCE TEXT
  VALUE
 
  00000000     00911 _RSEL0                  .EQU                0
               00912 
               00913 ;  164H  T4CTL   Bits-------------------------------------
  00000007     00914 T4REN                   .EQU                7
  00000006     00915 HSPEN                   .EQU                6
  00000005     00916 T4CKS1                  .EQU                5
  00000004     00917 T4CKS0                  .EQU                4
  00000003     00918 LSPEN                   .EQU                3
  00000002     00919 T4CS1                   .EQU                2
  00000001     00920 T4CS0                   .EQU                1
  00000000     00921 T4ON                    .EQU                0
  00000007     00922 _T4REN                  .EQU                7
  00000006     00923 _HSPEN                  .EQU                6
  00000005     00924 _T4CKS1                 .EQU                5
  00000004     00925 _T4CKS0                 .EQU                4
  00000003     00926 _LSPEN                  .EQU                3
  00000002     00927 _T4CS1                  .EQU                2
  00000001     00928 _T4CS0                  .EQU                1
  00000000     00929 _T4ON                   .EQU                0
               00930 ;************************************************************
               00931 ;       Header file for the KungFu8 END
               00932 ;       KF8A100ENG
               00933 ;       Microcontroller
               00934 ;
               00935 ;       Copyright 2012-2020 ChipON, All rights reserved
               00936 ;************************************************************
               00009 ;--------------------------------------------------------
               00010 ; external declarations
               00011 ;--------------------------------------------------------
               00012         .extern _Init_MCU
               00013         .extern _Init_I2C_S
               00014         .extern _Init_Usart
               00015         .extern _UART_SendBuf
               00016         .extern _delay_ms
               00017         .extern _Init_Touch
               00018         .extern _Init_Touch_GPIO
               00019         .extern _USART_Send_num
               00020         .extern _delay_us
               00021         .extern _DoorState_Init
               00022         .extern _DoorState_Deal
               00023         .extern _Door_StatusGet
               00024         .extern __Parameter_Init_
               00025         .extern __CTouch_Scan_Process_
               00026         .extern __CTouch_Key_Init_
               00027         .extern __CTouch_Get_Baseline_
               00028         .extern __CTouch_Get_RawData_
               00029         .extern __CTouch_Get_Lib_Version_
               00030         .extern _ADC_Init
               00031         .extern _Adc_read
               00032         .extern _BAT_StateGet
               00033         .extern _set_led
               00034         .extern _led_deal
               00035         .extern _processLED
               00036         .extern _FLASH_READ_ONE
kf8asm-2.0.0                    key.asm                                  PAGE 19


LOC  OBJECT CODE     LINE SOURCE TEXT
  VALUE
 
               00037         .extern _FLASH_READ_FUN
               00038         .extern _FLASH_WRITE_ONE
               00039         .extern _FLASH_WRITE_FUN
               00040         .extern _FLASH_Init
               00041         .extern _FLASH_Deal
               00042         .extern _Flash_data_set
               00043         .extern _set_savefalg
               00044         .extern _Timer0_Init
               00045         .extern _Timer1_Init
               00046         .extern _Timer4_Init
               00047         .extern _set_PWM1L
               00048         .extern _set_PWM2L
               00049         .extern _timer_init
               00050         .extern _P0_INT_init
               00051         .extern _get_pwmduty
               00052         .extern _pwm_deal
               00053         .extern _Clock_ClearSysLEDTimeStatus
               00054         .extern _Clock_GetSysLEDTimeStatus
               00055         .extern _STKR0
               00056         .extern _STK00
               00057         .extern _STK01
               00058         .extern _STK02
               00059         .extern _STK03
               00060         .extern _STK04
               00061         .extern _STK05
               00062         .extern _STK06
               00063         .extern _STK07
               00064         .extern _STK08
               00065         .extern _STK09
               00066         .extern _STK10
               00067         .extern _STK11
               00068         .extern _STK12
               00069         .extern _PSW_bits
               00070         .extern _P0_bits
               00071         .extern _P2_bits
               00072         .extern _P1_bits
               00073         .extern _INTCTL_bits
               00074         .extern _EIF1_bits
               00075         .extern _EIF2_bits
               00076         .extern _T1CTL_bits
               00077         .extern _PWMCTL_bits
               00078         .extern _BANK_bits
               00079         .extern _C1CTL_bits
               00080         .extern _VDACS_bits
               00081         .extern _AMPCTL_bits
               00082         .extern _ANSEH_bits
               00083         .extern _ADCCTL0_bits
               00084         .extern _AMPDT_bits
               00085         .extern _OPTR_bits
               00086         .extern _IP0_bits
               00087         .extern _IP1_bits
               00088         .extern _IP2_bits
               00089         .extern _TR0_bits
               00090         .extern _TR2_bits
kf8asm-2.0.0                    key.asm                                  PAGE 20


LOC  OBJECT CODE     LINE SOURCE TEXT
  VALUE
 
               00091         .extern _TR1_bits
               00092         .extern _OSCSTA_bits
               00093         .extern _IP3_bits
               00094         .extern _VRECTL_bits
               00095         .extern _EIE1_bits
               00096         .extern _EIE2_bits
               00097         .extern _PCTL_bits
               00098         .extern _OSCCTL_bits
               00099         .extern _ANSEL_bits
               00100         .extern _PUR0_bits
               00101         .extern _IOCL_bits
               00102         .extern _ADCCTL1_bits
               00103         .extern _P0LR_bits
               00104         .extern _P2LR_bits
               00105         .extern _P1LR_bits
               00106         .extern _EIE3_bits
               00107         .extern _EIF3_bits
               00108         .extern _T3CTL_bits
               00109         .extern _CTCTL0_bits
               00110         .extern _PUR1_bits
               00111         .extern _PUR2_bits
               00112         .extern _CTCTL1_bits
               00113         .extern _INTEDGCTL_bits
               00114         .extern _VDAC_bits
               00115         .extern _VRES_bits
               00116         .extern _C1CAL_bits
               00117         .extern _RSCTL_bits
               00118         .extern _BRCTL_bits
               00119         .extern _TSCTL_bits
               00120         .extern _SSCICTL0_bits
               00121         .extern _SSCICTL1_bits
               00122         .extern _SSCISTA_bits
               00123         .extern _SSCIMSK_bits
               00124         .extern _WDTPS_bits
               00125         .extern _C1FILTCTL_bits
               00126         .extern _C1FILTPRE_bits
               00127         .extern _CTCTL2_bits
               00128         .extern _T4CTL_bits
               00129         .extern _Channel_Press_str
               00130         .extern _Channel_Num_lib
               00131         .extern _ON_debounce_times_lib
               00132         .extern _Data_Stream_Enable_lib
               00133         .extern _Press_On_Max_Time_lib
               00134         .extern _Data_Change_Disturb_Max_Channel
               00135         .extern _Protect_Mode_Release_Time_lib
               00136         .extern _Baseline_Update_Cnt_lib
               00137         .extern _Max_Key_Cnt_Lib
               00138         .extern _Touch_Int_Flg
               00139         .extern _Ref_Channel_Enable_lib
               00140         .extern _FLASH_BUFFER
               00141         .extern _CTouch_Channel_Tab
               00142         .extern _CTouch_Threshold_Tab
               00143         .extern _CTouch_Second_Key_Threshold_Tab
               00144         .extern _CTouch_Single_Hysteresis_Tab
kf8asm-2.0.0                    key.asm                                  PAGE 21


LOC  OBJECT CODE     LINE SOURCE TEXT
  VALUE
 
               00145         .extern _CTouch_Noise_threshold_Tab
               00146         .extern _CTouch_Negative_Noise_threshold_Tab
               00147         .extern _CTouch_Max_Threshold_Tab
               00148         .extern _CTOUCH_VDAC_Tab
               00149         .extern _CTouch_Disturb_Noise_threshold_Tab
               00150         .extern _CTouch_Steady_Noise_threshold_Tab
               00151         .extern _T0
               00152         .extern _PCL
               00153         .extern _PSW
               00154         .extern _P0
               00155         .extern _P2
               00156         .extern _P1
               00157         .extern _PCH
               00158         .extern _INTCTL
               00159         .extern _EIF1
               00160         .extern _EIF2
               00161         .extern _T1L
               00162         .extern _T1H
               00163         .extern _T1CTL
               00164         .extern _PWM1L
               00165         .extern _PWMCTL
               00166         .extern _PP1
               00167         .extern _BANK
               00168         .extern _C1CTL
               00169         .extern _VDACS
               00170         .extern _AMPCTL
               00171         .extern _ANSEH
               00172         .extern _ADCDATA0H
               00173         .extern _ADCCTL0
               00174         .extern _AMPDT
               00175         .extern _OPTR
               00176         .extern _IP0
               00177         .extern _IP1
               00178         .extern _IP2
               00179         .extern _TR0
               00180         .extern _TR2
               00181         .extern _TR1
               00182         .extern _OSCSTA
               00183         .extern _IP3
               00184         .extern _VRECAL1
               00185         .extern _VRECTL
               00186         .extern _EIE1
               00187         .extern _EIE2
               00188         .extern _PCTL
               00189         .extern _OSCCTL
               00190         .extern _OSCCAL0
               00191         .extern _ANSEL
               00192         .extern _PP2
               00193         .extern _PWM2L
               00194         .extern _PUR0
               00195         .extern _IOCL
               00196         .extern _OSCCAL1
               00197         .extern _NVMDATAH
               00198         .extern _NVMDATAL
kf8asm-2.0.0                    key.asm                                  PAGE 22


LOC  OBJECT CODE     LINE SOURCE TEXT
  VALUE
 
               00199         .extern _NVMADDRH
               00200         .extern _NVMADDRL
               00201         .extern _NVMCTL0
               00202         .extern _NVMCTL1
               00203         .extern _ADCDATA0L
               00204         .extern _ADCCTL1
               00205         .extern _P0LR
               00206         .extern _P2LR
               00207         .extern _P1LR
               00208         .extern _EIE3
               00209         .extern _EIF3
               00210         .extern _OSCCAL2
               00211         .extern _OSCCAL3
               00212         .extern _T3CTL
               00213         .extern _T3L
               00214         .extern _CTCTL0
               00215         .extern _T3H
               00216         .extern _PUR1
               00217         .extern _PUR2
               00218         .extern _CTCTL1
               00219         .extern _INTEDGCTL
               00220         .extern _VDAC
               00221         .extern _VRES
               00222         .extern _C1CAL
               00223         .extern _RSCTL
               00224         .extern _TXSDR
               00225         .extern _RXSDR
               00226         .extern _BRCTL
               00227         .extern _TSCTL
               00228         .extern _EUBRGL
               00229         .extern _EUBRGH
               00230         .extern _SSCICTL0
               00231         .extern _SSCICTL1
               00232         .extern _SSCISTA
               00233         .extern _SSCIBUFR
               00234         .extern _SSCIADD
               00235         .extern _SSCIMSK
               00236         .extern _WDTPS
               00237         .extern _C1FILTCTL
               00238         .extern _C1FILTPRE
               00239         .extern _VRECAL2
               00240         .extern _VRECAL3
               00241         .extern _CTCTL2
               00242         .extern _T4L
               00243         .extern _T4H
               00244         .extern _T4REL
               00245         .extern _T4REH
               00246         .extern _T4CTL
               00247         .extern _RC32KCAL
               00248 
               00249         .extern I0R1
               00250         .extern I0R7
               00251         .extern I0PSW
               00252         .extern I0PCH
kf8asm-2.0.0                    key.asm                                  PAGE 23


LOC  OBJECT CODE     LINE SOURCE TEXT
  VALUE
 
               00253         .extern I1R1
               00254         .extern I1R7
               00255         .extern I1PSW
               00256         .extern I1PCH
               00257         .extern STK12
               00258         .extern STK11
               00259         .extern STK10
               00260         .extern STK09
               00261         .extern STK08
               00262         .extern STK07
               00263         .extern STK06
               00264         .extern STK05
               00265         .extern STK04
               00266         .extern STK03
               00267         .extern STK02
               00268         .extern STK01
               00269         .extern STK00
               00270 ;--------------------------------------------------------
               00271 ; global declarations
               00272 ;--------------------------------------------------------
               00273         .global _key_deal
               00274         .global _key_state_set
               00275         .global _key_read
               00276         .global _key_init
               00277         .global _key_state
               00278         .global _key_status
               00279         .global _key_state2
               00280         .global _key_status2
               00281         .global _key_value
               00282         .global _Key_Code
               00283         .global _Key_Error_Code
0000 00284         .define _STK12  STK12
0000 00285         .define _STK11  STK11
0000 00286         .define _STK10  STK10
0000 00287         .define _STK09  STK09
0000 00288         .define _STK08  STK08
0000 00289         .define _STK07  STK07
0000 00290         .define _STK06  STK06
0000 00291         .define _STK05  STK05
0000 00292         .define _STK04  STK04
0000 00293         .define _STK03  STK03
0000 00294         .define _STK02  STK02
0000 00295         .define _STK01  STK01
0000 00296         .define _STK00  STK00
               00297 
               00298 ;--------------------------------------------------------
               00299 ; global definitions
               00300 ;--------------------------------------------------------
               00301 UD_key_0        .udata
               00302 _key_state      .res    1
               00303 
               00304 UD_key_1        .udata
               00305 _key_state2     .res    1
               00306 
kf8asm-2.0.0                    key.asm                                  PAGE 24


LOC  OBJECT CODE     LINE SOURCE TEXT
  VALUE
 
               00307 UD_key_2        .udata
               00308 _key_value      .res    2
               00309 
               00310 ;--------------------------------------------------------
               00311 ; absolute symbol definitions
               00312 ;--------------------------------------------------------
               00313 ;--------------------------------------------------------
               00314 ; compiler-defined variables
               00315 ;--------------------------------------------------------
               00316 UDL_key_0       .udata
               00317 r0x100C .res    1
               00318 UDL_key_1       .udata
               00319 r0x100E .res    1
               00320 UDL_key_2       .udata
               00321 r0x100F .res    1
               00322 UDL_key_3       .udata
               00323 r0x100D .res    1
               00324 ;--------------------------------------------------------
               00325 ; initialized data
               00326 ;--------------------------------------------------------
               00327 
               00328 ID_key_0        .idata
               00329 _key_status
               00330         .db     0x00
               00331 
               00332 
               00333 ID_key_1        .idata
               00334 _key_status2
               00335         .db     0x00
               00336 
               00337 
               00338 ID_key_2        .idata
               00339 _Key_Code
               00340         .db     0x00, 0x00
               00341 
               00342 
               00343 ID_key_3        .idata
               00344 _Key_Error_Code
               00345         .db     0x00
               00346 
               00347 ;--------------------------------------------------------
               00348 ; overlayable items in internal ram 
               00349 ;--------------------------------------------------------
               00350 ;       .udata_ovr
               00351 
               00352 
               00353 func._key_deal  .code
               00354 ;***
               00355 ;  PostBlock Stats: dbName = C
               00356 ;***
               00357 ;entry:  _key_deal      ;Function start
               00358 ; 2 exit points
               00359 ;has an exit
               00360 ;functions called:
kf8asm-2.0.0                    key.asm                                  PAGE 25


LOC  OBJECT CODE     LINE SOURCE TEXT
  VALUE
 
               00361 ;   _key_read
               00362 ;   _Door_StatusGet
               00363 ;   _Door_StatusGet
               00364 ;   _set_led
               00365 ;   _Flash_data_set
               00366 ;   _set_led
               00367 ;   _Flash_data_set
               00368 ;   _set_led
               00369 ;   _Flash_data_set
               00370 ;   _set_led
               00371 ;   _Flash_data_set
               00372 ;   _key_read
               00373 ;   _Door_StatusGet
               00374 ;   _Door_StatusGet
               00375 ;   _set_led
               00376 ;   _Flash_data_set
               00377 ;   _set_led
               00378 ;   _Flash_data_set
               00379 ;   _set_led
               00380 ;   _Flash_data_set
               00381 ;   _set_led
               00382 ;   _Flash_data_set
               00383 ;3 compiler assigned registers:
               00384 ;   r0x100D
               00385 ;   STK01
               00386 ;   STK00
               00387 ;; Starting PostCode block
               00388 ;       .def _key_deal_function_begin, debug, value=$
               00389 
               00390 ;       ::->op : LABEL
               00391 ;       ::->op : FUNCTION
0000 00392 _key_deal       ;Function start
               00393 ; 2 exit points
               00394 ;       ::->op : CALL
               00395 ;       .line   102; "../key.c" key_read();
0000 0000      00396         PAGESEL _key_read
0001 D000      00397         CALL    _key_read
0002 0000      00398         PAGESEL $
               00399 ;       ::->op : CALL
               00400 ;       .line   104; "../key.c" if((Door_StatusGet() != PWM_40) && (Door_StatusGet() >= PWM_20))
0003 0000      00401         PAGESEL _Door_StatusGet
0004 D000      00402         CALL    _Door_StatusGet
0005 0000      00403         PAGESEL $
0006 0000      00404         BANKSEL r0x100D
0007 5100      00405         MOV     r0x100D, R0
               00406 ;       ::->op : EQ_OP
0008 0000      00407         BANKSEL r0x100D
0009 0E00      00408         MOVZ    R0, r0x100D
000A A806      00409         XOR     R0,# 0x06
000B 7203      00410         JNB     PSW, 2
000C C000      00411         JMP     _00056_DS_
000D 0000      00412         PAGESEL _Door_StatusGet
000E D000      00413         CALL    _Door_StatusGet
000F 0000      00414         PAGESEL $
kf8asm-2.0.0                    key.asm                                  PAGE 26


LOC  OBJECT CODE     LINE SOURCE TEXT
  VALUE
 
0010 0000      00415         BANKSEL r0x100D
0011 5100      00416         MOV     r0x100D, R0
               00417 ;       ::->op : <
               00418 ;unsigned compare: left < lit(0x5=5), size=1
0012 9805      00419         MOV     R0,# 0x05
0013 0000      00420         BANKSEL r0x100D
0014 3800      00421         SUB     R0, r0x100D
               00422 ;comparing bytes at offset 0
0015 7803      00423         JB      PSW, 0
0016 C000      00424         JMP     _00056_DS_
               00425 ;       ::->op : EQ_OP
               00426 ;       .line   107; "../key.c" if (key_state == UnPressed2Pressed)
0017 0000      00427         BANKSEL _key_state
0018 0E00      00428         MOVZ    R0, _key_state
0019 A801      00429         XOR     R0,# 0x01
001A 7A03      00430         JB      PSW, 2
001B C000      00431         JMP     _00047_DS_
               00432 ;       ::->op : IFX
               00433 ;       .line   109; "../key.c" if(key_status == Key_Off)
001C 9800      00434         MOV     R0,# 0x00
001D 0000      00435         BANKSEL _key_status
001E 3000      00436         ORL     R0, _key_status
001F 7A03      00437         JB      PSW, 2
0020 C000      00438         JMP     _00044_DS_
               00439 ;       ::->op : =
               00440 ;       .line   111; "../key.c" key_status = Key_On;
0021 9801      00441         MOV     R0,# 0x01
0022 0000      00442         BANKSEL _key_status
0023 5100      00443         MOV     _key_status, R0
               00444 ;       ::->op : SEND
               00445 ;       ::->op : SEND
               00446 ;       ::->op : SEND
               00447 ;       ::->op : CALL
               00448 ;       .line   112; "../key.c" set_led(1,LeftReadLightSW,Ind_On);
0024 9801      00449         MOV     R0,# 0x01
0025 0000      00450         BANKSEL STK01
0026 5100      00451         MOV     STK01, R0
0027 9801      00452         MOV     R0,# 0x01
0028 0000      00453         BANKSEL STK00
0029 5100      00454         MOV     STK00, R0
002A 9801      00455         MOV     R0,# 0x01
002B 0000      00456         PAGESEL _set_led
002C D000      00457         CALL    _set_led
002D 0000      00458         PAGESEL $
               00459 ;       ::->op : SEND
               00460 ;       ::->op : SEND
               00461 ;       ::->op : SEND
               00462 ;       ::->op : CALL
               00463 ;       .line   113; "../key.c" Flash_data_set(1,LeftReadLightSW,Ind_On);
002E 9801      00464         MOV     R0,# 0x01
002F 0000      00465         BANKSEL STK01
0030 5100      00466         MOV     STK01, R0
0031 9801      00467         MOV     R0,# 0x01
0032 0000      00468         BANKSEL STK00
kf8asm-2.0.0                    key.asm                                  PAGE 27


LOC  OBJECT CODE     LINE SOURCE TEXT
  VALUE
 
0033 5100      00469         MOV     STK00, R0
0034 9801      00470         MOV     R0,# 0x01
0035 0000      00471         PAGESEL _Flash_data_set
0036 D000      00472         CALL    _Flash_data_set
0037 0000      00473         PAGESEL $
               00474 ;       ::->op : GOTO
0038 C000      00475         JMP     _00047_DS_
               00476 ;       ::->op : LABEL
               00477 ;       ::->op : =
0039 00478 _00044_DS_
               00479 ;       .line   117; "../key.c" key_status = Key_Off;
0039 0000      00480         BANKSEL _key_status
003A 0300      00481         CLR     _key_status
               00482 ;       ::->op : SEND
               00483 ;       ::->op : SEND
               00484 ;       ::->op : SEND
               00485 ;       ::->op : CALL
               00486 ;       .line   118; "../key.c" set_led(1,LeftReadLightSW,Ind_Off);
003B 9800      00487         MOV     R0,# 0x00
003C 0000      00488         BANKSEL STK01
003D 5100      00489         MOV     STK01, R0
003E 9801      00490         MOV     R0,# 0x01
003F 0000      00491         BANKSEL STK00
0040 5100      00492         MOV     STK00, R0
0041 9801      00493         MOV     R0,# 0x01
0042 0000      00494         PAGESEL _set_led
0043 D000      00495         CALL    _set_led
0044 0000      00496         PAGESEL $
               00497 ;       ::->op : SEND
               00498 ;       ::->op : SEND
               00499 ;       ::->op : SEND
               00500 ;       ::->op : CALL
               00501 ;       .line   119; "../key.c" Flash_data_set(1,LeftReadLightSW,Ind_Off);
0045 9800      00502         MOV     R0,# 0x00
0046 0000      00503         BANKSEL STK01
0047 5100      00504         MOV     STK01, R0
0048 9801      00505         MOV     R0,# 0x01
0049 0000      00506         BANKSEL STK00
004A 5100      00507         MOV     STK00, R0
004B 9801      00508         MOV     R0,# 0x01
004C 0000      00509         PAGESEL _Flash_data_set
004D D000      00510         CALL    _Flash_data_set
004E 0000      00511         PAGESEL $
               00512 ;       ::->op : LABEL
               00513 ;       ::->op : EQ_OP
004F 00514 _00047_DS_
               00515 ;       .line   124; "../key.c" if (key_state2 == UnPressed2Pressed)
004F 0000      00516         BANKSEL _key_state2
0050 0E00      00517         MOVZ    R0, _key_state2
0051 A801      00518         XOR     R0,# 0x01
0052 7A03      00519         JB      PSW, 2
0053 C000      00520         JMP     _00056_DS_
               00521 ;       ::->op : IFX
               00522 ;       .line   126; "../key.c" if(key_status2 == Key_Off)
kf8asm-2.0.0                    key.asm                                  PAGE 28


LOC  OBJECT CODE     LINE SOURCE TEXT
  VALUE
 
0054 9800      00523         MOV     R0,# 0x00
0055 0000      00524         BANKSEL _key_status2
0056 3000      00525         ORL     R0, _key_status2
0057 7A03      00526         JB      PSW, 2
0058 C000      00527         JMP     _00049_DS_
               00528 ;       ::->op : =
               00529 ;       .line   128; "../key.c" key_status2 = Key_On;
0059 9801      00530         MOV     R0,# 0x01
005A 0000      00531         BANKSEL _key_status2
005B 5100      00532         MOV     _key_status2, R0
               00533 ;       ::->op : SEND
               00534 ;       ::->op : SEND
               00535 ;       ::->op : SEND
               00536 ;       ::->op : CALL
               00537 ;       .line   129; "../key.c" set_led(2,RightReadLightSW,Ind_On);
005C 9801      00538         MOV     R0,# 0x01
005D 0000      00539         BANKSEL STK01
005E 5100      00540         MOV     STK01, R0
005F 9800      00541         MOV     R0,# 0x00
0060 0000      00542         BANKSEL STK00
0061 5100      00543         MOV     STK00, R0
0062 9802      00544         MOV     R0,# 0x02
0063 0000      00545         PAGESEL _set_led
0064 D000      00546         CALL    _set_led
0065 0000      00547         PAGESEL $
               00548 ;       ::->op : SEND
               00549 ;       ::->op : SEND
               00550 ;       ::->op : SEND
               00551 ;       ::->op : CALL
               00552 ;       .line   130; "../key.c" Flash_data_set(2,RightReadLightSW,Ind_On);
0066 9801      00553         MOV     R0,# 0x01
0067 0000      00554         BANKSEL STK01
0068 5100      00555         MOV     STK01, R0
0069 9800      00556         MOV     R0,# 0x00
006A 0000      00557         BANKSEL STK00
006B 5100      00558         MOV     STK00, R0
006C 9802      00559         MOV     R0,# 0x02
006D 0000      00560         PAGESEL _Flash_data_set
006E D000      00561         CALL    _Flash_data_set
006F 0000      00562         PAGESEL $
               00563 ;       ::->op : GOTO
0070 C000      00564         JMP     _00056_DS_
               00565 ;       ::->op : LABEL
               00566 ;       ::->op : =
0071 00567 _00049_DS_
               00568 ;       .line   134; "../key.c" key_status2 = Key_Off;
0071 0000      00569         BANKSEL _key_status2
0072 0300      00570         CLR     _key_status2
               00571 ;       ::->op : SEND
               00572 ;       ::->op : SEND
               00573 ;       ::->op : SEND
               00574 ;       ::->op : CALL
               00575 ;       .line   135; "../key.c" set_led(2,RightReadLightSW,Ind_Off);
0073 9800      00576         MOV     R0,# 0x00
kf8asm-2.0.0                    key.asm                                  PAGE 29


LOC  OBJECT CODE     LINE SOURCE TEXT
  VALUE
 
0074 0000      00577         BANKSEL STK01
0075 5100      00578         MOV     STK01, R0
0076 9800      00579         MOV     R0,# 0x00
0077 0000      00580         BANKSEL STK00
0078 5100      00581         MOV     STK00, R0
0079 9802      00582         MOV     R0,# 0x02
007A 0000      00583         PAGESEL _set_led
007B D000      00584         CALL    _set_led
007C 0000      00585         PAGESEL $
               00586 ;       ::->op : SEND
               00587 ;       ::->op : SEND
               00588 ;       ::->op : SEND
               00589 ;       ::->op : CALL
               00590 ;       .line   136; "../key.c" Flash_data_set(2,RightReadLightSW,Ind_Off);
007D 9800      00591         MOV     R0,# 0x00
007E 0000      00592         BANKSEL STK01
007F 5100      00593         MOV     STK01, R0
0080 9800      00594         MOV     R0,# 0x00
0081 0000      00595         BANKSEL STK00
0082 5100      00596         MOV     STK00, R0
0083 9802      00597         MOV     R0,# 0x02
0084 0000      00598         PAGESEL _Flash_data_set
0085 D000      00599         CALL    _Flash_data_set
0086 0000      00600         PAGESEL $
               00601 ;       ::->op : LABEL
               00602 ;       ::->op : ENDFUNCTION
0087 00603 _00056_DS_
0087 0008      00604         CRET    
               00605 ;       .def _key_deal_function_end, debug, value=$
               00606 
               00607 ; exit point of _key_deal
               00608 
               00609 
               00610 
               00611 func._key_state_set     .code
               00612 ;***
               00613 ;  PostBlock Stats: dbName = C
               00614 ;***
               00615 ;entry:  _key_state_set ;Function start
               00616 ; 2 exit points
               00617 ;has an exit
               00618 ;3 compiler assigned registers:
               00619 ;   r0x100E
               00620 ;   STK00
               00621 ;   r0x100F
               00622 ;; Starting PostCode block
               00623 ;       .def _key_state_set_function_begin, debug, value=$
               00624 
               00625 ;       ::->op : LABEL
               00626 ;       ::->op : FUNCTION
0000 00627 _key_state_set  ;Function start
               00628 ; 2 exit points
               00629 ;       ::->op : RECEIVE
               00630 ;       .line   89; "../key.c"  void key_state_set(uint8_t ch,Key_Status_t status)
kf8asm-2.0.0                    key.asm                                  PAGE 30


LOC  OBJECT CODE     LINE SOURCE TEXT
  VALUE
 
0000 0000      00631         BANKSEL r0x100E
0001 5100      00632         MOV     r0x100E, R0
               00633 ;       ::->op : RECEIVE
0002 0000      00634         BANKSEL STK00
0003 0E00      00635         MOVZ    R0, STK00
0004 0000      00636         BANKSEL r0x100F
0005 5100      00637         MOV     r0x100F, R0
               00638 ;       ::->op : EQ_OP
               00639 ;       .line   91; "../key.c"  if(ch == 1)
0006 0000      00640         BANKSEL r0x100E
0007 0E00      00641         MOVZ    R0, r0x100E
0008 A801      00642         XOR     R0,# 0x01
0009 7A03      00643         JB      PSW, 2
000A C000      00644         JMP     _00036_DS_
               00645 ;       ::->op : =
               00646 ;       .line   92; "../key.c"  key_status = status;
000B 0000      00647         BANKSEL r0x100F
000C 0E00      00648         MOVZ    R0, r0x100F
000D 0000      00649         BANKSEL _key_status
000E 5100      00650         MOV     _key_status, R0
               00651 ;       ::->op : LABEL
               00652 ;       ::->op : EQ_OP
000F 00653 _00036_DS_
               00654 ;       .line   93; "../key.c"  if(ch == 2)
000F 0000      00655         BANKSEL r0x100E
0010 0E00      00656         MOVZ    R0, r0x100E
0011 A802      00657         XOR     R0,# 0x02
0012 7A03      00658         JB      PSW, 2
0013 C000      00659         JMP     _00039_DS_
               00660 ;       ::->op : =
               00661 ;       .line   94; "../key.c"  key_status2 = status;
0014 0000      00662         BANKSEL r0x100F
0015 0E00      00663         MOVZ    R0, r0x100F
0016 0000      00664         BANKSEL _key_status2
0017 5100      00665         MOV     _key_status2, R0
               00666 ;       ::->op : LABEL
               00667 ;       ::->op : ENDFUNCTION
0018 00668 _00039_DS_
0018 0008      00669         CRET    
               00670 ;       .def _key_state_set_function_end, debug, value=$
               00671 
               00672 ; exit point of _key_state_set
               00673 
               00674 
               00675 
               00676 func._key_read  .code
               00677 ;***
               00678 ;  PostBlock Stats: dbName = C
               00679 ;***
               00680 ;entry:  _key_read      ;Function start
               00681 ; 2 exit points
               00682 ;has an exit
               00683 ;functions called:
               00684 ;   __CTouch_Scan_Process_
kf8asm-2.0.0                    key.asm                                  PAGE 31


LOC  OBJECT CODE     LINE SOURCE TEXT
  VALUE
 
               00685 ;   __CTouch_Scan_Process_
               00686 ;2 compiler assigned registers:
               00687 ;   r0x100B
               00688 ;   r0x100C
               00689 ;; Starting PostCode block
               00690 ;       .def _key_read_function_begin, debug, value=$
               00691 
               00692 ;       ::->op : LABEL
               00693 ;       ::->op : FUNCTION
0000 00694 _key_read       ;Function start
               00695 ; 2 exit points
               00696 ;       ::->op : CALL
               00697 ;       .line   37; "../key.c"  Key_Error_Code = _CTouch_Scan_Process_();  //
0000 0000      00698         PAGESEL __CTouch_Scan_Process_
0001 D000      00699         CALL    __CTouch_Scan_Process_
0002 0000      00700         PAGESEL $
0003 0000      00701         BANKSEL _Key_Error_Code
0004 5100      00702         MOV     _Key_Error_Code, R0
               00703 ;       ::->op : =
               00704 ;       .line   39; "../key.c"  key_value = Channel_Press_str;
0005 0000      00705         BANKSEL _Channel_Press_str
0006 0E00      00706         MOVZ    R0, _Channel_Press_str
0007 0000      00707         BANKSEL _key_value
0008 5100      00708         MOV     _key_value, R0
0009 0000      00709         BANKSEL _Channel_Press_str
000A 0E00      00710         MOVZ    R0, (_Channel_Press_str + 1)
000B 0000      00711         BANKSEL _key_value
000C 5100      00712         MOV     (_key_value + 1), R0
               00713 ;       ::->op : BITWISEAND
               00714 ;       .line   40; "../key.c"  Key_Code = key_value & 0x01;  //
000D 9801      00715         MOV     R0,# 0x01
000E 0000      00716         BANKSEL _key_value
000F 2800      00717         AND     R0, _key_value
0010 0000      00718         BANKSEL _Key_Code
0011 5100      00719         MOV     _Key_Code, R0
0012 0000      00720         BANKSEL _Key_Code
0013 0300      00721         CLR     (_Key_Code + 1)
               00722 ;       ::->op : >
               00723 ;swapping arguments (AOP_TYPEs 1/3)
               00724 ;unsigned compare: left >= lit(0x4=4), size=1
               00725 ;       .line   42; "../key.c"  switch(key_state)  //
0014 9804      00726         MOV     R0,# 0x04
0015 0000      00727         BANKSEL _key_state
0016 3800      00728         SUB     R0, _key_state
               00729 ;comparing bytes at offset 0
0017 7003      00730         JNB     PSW, 0
0018 C000      00731         JMP     _00012_DS_
               00732 ;       ::->op : JUMPTABLE
0019 9800      00733         MOV     R0,#high _00032_DS_
001A 510A      00734         MOV     PCH, R0
001B 9800      00735         MOV     R0,#_00032_DS_
001C 0000      00736         BANKSEL _key_state
001D 2000      00737         ADD     R0, _key_state
001E 7003      00738         JNB     PSW, 0
kf8asm-2.0.0                    key.asm                                  PAGE 32


LOC  OBJECT CODE     LINE SOURCE TEXT
  VALUE
 
001F 0B0A      00739         INC     PCH
0020 5102      00740         MOV     PCL, R0
0021 00741 _00032_DS_
0021 C000      00742         JMP     _00003_DS_
0022 C000      00743         JMP     _00006_DS_
0023 C000      00744         JMP     _00007_DS_
0024 C000      00745         JMP     _00010_DS_
               00746 ;       ::->op : LABEL
               00747 ;       ::->op : EQ_OP
0025 00748 _00003_DS_
               00749 ;       .line   45; "../key.c"  if(Key_Code == 1)
0025 0000      00750         BANKSEL _Key_Code
0026 0E00      00751         MOVZ    R0, _Key_Code
0027 A801      00752         XOR     R0,# 0x01
0028 7A03      00753         JB      PSW, 2
0029 C000      00754         JMP     _00012_DS_
002A 0000      00755         BANKSEL _Key_Code
002B 0E00      00756         MOVZ    R0, (_Key_Code + 1)
002C A800      00757         XOR     R0,# 0x00
002D 7A03      00758         JB      PSW, 2
002E C000      00759         JMP     _00012_DS_
               00760 ;       ::->op : =
               00761 ;       .line   46; "../key.c"  key_state = UnPressed2Pressed;
002F 9801      00762         MOV     R0,# 0x01
0030 0000      00763         BANKSEL _key_state
0031 5100      00764         MOV     _key_state, R0
               00765 ;       ::->op : GOTO
               00766 ;       .line   47; "../key.c"  break;
0032 C000      00767         JMP     _00012_DS_
               00768 ;       ::->op : LABEL
               00769 ;       ::->op : =
0033 00770 _00006_DS_
               00771 ;       .line   49; "../key.c"  key_state = Pressed;
0033 9802      00772         MOV     R0,# 0x02
0034 0000      00773         BANKSEL _key_state
0035 5100      00774         MOV     _key_state, R0
               00775 ;       ::->op : GOTO
               00776 ;       .line   50; "../key.c"  break;
0036 C000      00777         JMP     _00012_DS_
               00778 ;       ::->op : LABEL
               00779 ;       ::->op : IFX
0037 00780 _00007_DS_
               00781 ;       .line   52; "../key.c"  if(Key_Code == 0)
0037 0000      00782         BANKSEL _Key_Code
0038 0E00      00783         MOVZ    R0, _Key_Code
0039 0000      00784         BANKSEL _Key_Code
003A 3000      00785         ORL     R0, (_Key_Code + 1)
003B 7A03      00786         JB      PSW, 2
003C C000      00787         JMP     _00012_DS_
               00788 ;       ::->op : =
               00789 ;       .line   53; "../key.c"  key_state = Pressed2UnPressed;
003D 9803      00790         MOV     R0,# 0x03
003E 0000      00791         BANKSEL _key_state
003F 5100      00792         MOV     _key_state, R0
kf8asm-2.0.0                    key.asm                                  PAGE 33


LOC  OBJECT CODE     LINE SOURCE TEXT
  VALUE
 
               00793 ;       ::->op : GOTO
               00794 ;       .line   54; "../key.c"  break;
0040 C000      00795         JMP     _00012_DS_
               00796 ;       ::->op : LABEL
               00797 ;       ::->op : =
0041 00798 _00010_DS_
               00799 ;       .line   56; "../key.c"  key_state = UnPressed;
0041 0000      00800         BANKSEL _key_state
0042 0300      00801         CLR     _key_state
               00802 ;       ::->op : LABEL
               00803 ;       ::->op : RIGHT_OP
0043 00804 _00012_DS_
               00805 ;       .line   63; "../key.c"  Key_Code = key_value >> 1 & 0x01;  //
0043 6003      00806         CLR     PSW, 0
0044 0000      00807         BANKSEL _key_value
0045 1000      00808         RRCR    (_key_value + 1)
               00809 ;;1     MOV     r0x100B, R0
0046 0000      00810         BANKSEL _key_value
0047 1000      00811         RRCR    _key_value
0048 0000      00812         BANKSEL r0x100C
0049 5100      00813         MOV     r0x100C, R0
               00814 ;       ::->op : BITWISEAND
004A 9801      00815         MOV     R0,# 0x01
004B 0000      00816         BANKSEL r0x100C
004C 2800      00817         AND     R0, r0x100C
004D 0000      00818         BANKSEL _Key_Code
004E 5100      00819         MOV     _Key_Code, R0
004F 0000      00820         BANKSEL _Key_Code
0050 0300      00821         CLR     (_Key_Code + 1)
               00822 ;       ::->op : >
               00823 ;swapping arguments (AOP_TYPEs 1/3)
               00824 ;unsigned compare: left >= lit(0x4=4), size=1
               00825 ;       .line   65; "../key.c"  switch(key_state2)  //
0051 9804      00826         MOV     R0,# 0x04
0052 0000      00827         BANKSEL _key_state2
0053 3800      00828         SUB     R0, _key_state2
               00829 ;comparing bytes at offset 0
0054 7003      00830         JNB     PSW, 0
0055 C000      00831         JMP     _00023_DS_
               00832 ;       ::->op : JUMPTABLE
0056 9800      00833         MOV     R0,#high _00034_DS_
0057 510A      00834         MOV     PCH, R0
0058 9800      00835         MOV     R0,#_00034_DS_
0059 0000      00836         BANKSEL _key_state2
005A 2000      00837         ADD     R0, _key_state2
005B 7003      00838         JNB     PSW, 0
005C 0B0A      00839         INC     PCH
005D 5102      00840         MOV     PCL, R0
005E 00841 _00034_DS_
005E C000      00842         JMP     _00013_DS_
005F C000      00843         JMP     _00016_DS_
0060 C000      00844         JMP     _00017_DS_
0061 C000      00845         JMP     _00020_DS_
               00846 ;       ::->op : LABEL
kf8asm-2.0.0                    key.asm                                  PAGE 34


LOC  OBJECT CODE     LINE SOURCE TEXT
  VALUE
 
               00847 ;       ::->op : EQ_OP
0062 00848 _00013_DS_
               00849 ;       .line   68; "../key.c"  if(Key_Code == 1)
0062 0000      00850         BANKSEL _Key_Code
0063 0E00      00851         MOVZ    R0, _Key_Code
0064 A801      00852         XOR     R0,# 0x01
0065 7A03      00853         JB      PSW, 2
0066 C000      00854         JMP     _00023_DS_
0067 0000      00855         BANKSEL _Key_Code
0068 0E00      00856         MOVZ    R0, (_Key_Code + 1)
0069 A800      00857         XOR     R0,# 0x00
006A 7A03      00858         JB      PSW, 2
006B C000      00859         JMP     _00023_DS_
               00860 ;       ::->op : =
               00861 ;       .line   69; "../key.c"  key_state2 = UnPressed2Pressed;
006C 9801      00862         MOV     R0,# 0x01
006D 0000      00863         BANKSEL _key_state2
006E 5100      00864         MOV     _key_state2, R0
               00865 ;       ::->op : GOTO
               00866 ;       .line   70; "../key.c"  break;
006F C000      00867         JMP     _00023_DS_
               00868 ;       ::->op : LABEL
               00869 ;       ::->op : =
0070 00870 _00016_DS_
               00871 ;       .line   72; "../key.c"  key_state2 = Pressed;
0070 9802      00872         MOV     R0,# 0x02
0071 0000      00873         BANKSEL _key_state2
0072 5100      00874         MOV     _key_state2, R0
               00875 ;       ::->op : GOTO
               00876 ;       .line   73; "../key.c"  break;
0073 C000      00877         JMP     _00023_DS_
               00878 ;       ::->op : LABEL
               00879 ;       ::->op : IFX
0074 00880 _00017_DS_
               00881 ;       .line   75; "../key.c"  if(Key_Code == 0)
0074 0000      00882         BANKSEL _Key_Code
0075 0E00      00883         MOVZ    R0, _Key_Code
0076 0000      00884         BANKSEL _Key_Code
0077 3000      00885         ORL     R0, (_Key_Code + 1)
0078 7A03      00886         JB      PSW, 2
0079 C000      00887         JMP     _00023_DS_
               00888 ;       ::->op : =
               00889 ;       .line   76; "../key.c"  key_state2 = Pressed2UnPressed;
007A 9803      00890         MOV     R0,# 0x03
007B 0000      00891         BANKSEL _key_state2
007C 5100      00892         MOV     _key_state2, R0
               00893 ;       ::->op : GOTO
               00894 ;       .line   77; "../key.c"  break;
007D C000      00895         JMP     _00023_DS_
               00896 ;       ::->op : LABEL
               00897 ;       ::->op : =
007E 00898 _00020_DS_
               00899 ;       .line   79; "../key.c"  key_state2 = UnPressed;
007E 0000      00900         BANKSEL _key_state2
kf8asm-2.0.0                    key.asm                                  PAGE 35


LOC  OBJECT CODE     LINE SOURCE TEXT
  VALUE
 
007F 0300      00901         CLR     _key_state2
               00902 ;       ::->op : LABEL
               00903 ;       ::->op : ENDFUNCTION
0080 00904 _00023_DS_
               00905 ;       .line   83; "../key.c"  }
0080 0008      00906         CRET    
               00907 ;       .def _key_read_function_end, debug, value=$
               00908 
               00909 ; exit point of _key_read
               00910 
               00911 
               00912 
               00913 func._key_init  .code
               00914 ;***
               00915 ;  PostBlock Stats: dbName = C
               00916 ;***
               00917 ;entry:  _key_init      ;Function start
               00918 ; 2 exit points
               00919 ;has an exit
               00920 ;; Starting PostCode block
               00921 ;       .def _key_init_function_begin, debug, value=$
               00922 
               00923 ;       ::->op : LABEL
               00924 ;       ::->op : FUNCTION
0000 00925 _key_init       ;Function start
               00926 ; 2 exit points
               00927 ;       ::->op : =
               00928 ;       .line   28; "../key.c"  key_state = UnPressed;
0000 0000      00929         BANKSEL _key_state
0001 0300      00930         CLR     _key_state
               00931 ;       ::->op : =
               00932 ;       .line   29; "../key.c"  key_state2 = UnPressed;
0002 0000      00933         BANKSEL _key_state2
0003 0300      00934         CLR     _key_state2
               00935 ;       ::->op : LABEL
               00936 ;       ::->op : ENDFUNCTION
0004 0008      00937         CRET    
               00938 ;       .def _key_init_function_end, debug, value=$
               00939 
               00940 ; exit point of _key_init
               00941 
               00942 
               00943 ;       code size estimation:
               00944 ;         222+   73 =   295 instructions (  736 byte)
               00945 
               00946 ;       .type _key_init,  32
               00947 ;       .dim _key_init, 1, (_key_init_function_end&0xFF00)>>8, _key_init_function_end&0xFF,0,26,0,30 , 1, 1
               00948 ;       .type _key_read,  32
               00949 ;       .dim _key_read, 1, (_key_read_function_end&0xFF00)>>8, _key_read_function_end&0xFF,0,35,0,84 , 1, 1
               00950 ;       .type _key_state_set,  32
               00951 ;       .dim _key_state_set, 1, (_key_state_set_function_end&0xFF00)>>8, _key_state_set_function_end&0xFF,0,89,0,95 , 1, 1
               00952 ;       .type _key_deal,  32
               00953 ;       .dim _key_deal, 1, (_key_deal_function_end&0xFF00)>>8, _key_deal_function_end&0xFF,0,100,0,140 , 1, 1
               00954 
kf8asm-2.0.0                    key.asm                                  PAGE 36


SYMBOL TABLE
  LABEL                             VALUE 

ABRDEN                            00000000
ABRDOVF                           00000007
ADCALEN                           00000007
ADCCTL0                           0000001F
ADCCTL1                           0000003F
ADCDATA0H                         0000001E
ADCDATA0L                         0000003E
ADCIM                             00000000
ADCS0                             00000004
ADCS1                             00000005
ADCS2                             00000006
ADEN                              00000000
ADIE                              00000006
ADIF                              00000006
ADLR                              00000007
ADREN                             00000003
AIE                               00000007
AIEH                              00000007
AIEL                              00000006
AMPCTL                            0000001B
AMPDT                             00000020
AMPON                             00000000
ANS0                              00000000
ANS1                              00000001
ANS10                             00000002
ANS11                             00000003
ANS12                             00000004
ANS13                             00000005
ANS2                              00000002
ANS3                              00000003
ANS4                              00000004
ANS5                              00000005
ANS6                              00000006
ANS7                              00000007
ANS8                              00000000
ANS9                              00000001
ANSEH                             0000001D
ANSEL                             00000031
BANK                              00000017
BCLIE                             00000001
BCLIF                             00000001
BRCTL                             00000123
BRG16                             00000004
C1CAL                             00000115
C1CALEN                           00000003
C1CALSET                          00000002
C1CTL                             00000019
C1DT0                             00000000
C1DT1                             00000001
C1DT2                             00000002
C1DT3                             00000003
C1DT4                             00000004
C1DT5                             00000005
C1DT6                             00000006
kf8asm-2.0.0                    key.asm                                  PAGE 37


LOC  OBJECT CODE     LINE SOURCE TEXT
  VALUE
 
C1DT7                             00000007
C1EN                              00000000
C1FILTCTL                         0000014A
C1FILTPRE                         0000014B
C1IE                              00000003
C1IF                              00000003
C1MOD                             00000006
C1OE                              00000007
C1OUT                             00000001
CALID                             00000007
CALIEN                            00000001
CHS0                              00000002
CHS1                              00000003
CHS2                              00000004
CHS3                              00000005
CLKOE                             00000007
CRXEN                             00000004
CSRS                              00000007
CTCHSEL0                          00000000
CTCHSEL1                          00000001
CTCHSEL2                          00000002
CTCHSEL3                          00000003
CTCHSEL4                          00000004
CTCLKSEL0                         00000006
CTCLKSEL1                         00000007
CTCTL0                            00000053
CTCTL1                            00000064
CTCTL2                            0000015B
CTEN                              00000007
CTMODE                            00000004
CTSTART                           00000006
CY                                00000000
DC                                00000001
DT0                               00000000
DT1                               00000001
DT2                               00000002
DT3                               00000003
DT4                               00000004
DT5                               00000005
DT6                               00000006
DT7                               00000007
EIE1                              0000002C
EIE2                              0000002D
EIE3                              0000004A
EIF1                              0000000C
EIF2                              0000000D
EIF3                              0000004B
EUBRGH                            00000126
EUBRGL                            00000125
F1CNT0                            00000000
F1CNT1                            00000001
F1CNT2                            00000002
FEN1                              00000005
FP10                              00000000
kf8asm-2.0.0                    key.asm                                  PAGE 38


LOC  OBJECT CODE     LINE SOURCE TEXT
  VALUE
 
FP11                              00000001
FP12                              00000002
FP13                              00000003
FP14                              00000004
FP15                              00000005
FP16                              00000006
FP17                              00000007
FRER                              00000002
FSCM                              00000000
HBRG                              00000002
HSPEN                             00000006
HTS                               00000005
I0PCH                             00000000
I0PSW                             00000000
I0R1                              00000000
I0R7                              00000000
I1PCH                             00000000
I1PSW                             00000000
I1R1                              00000000
I1R7                              00000000
IESO                              00000001
INPS0                             00000004
INPS1                             00000005
INT0IE                            00000004
INT0IF                            00000001
INT0SE                            00000006
INT1IE                            00000004
INT1IF                            00000004
INT1SE                            00000006
INT2IE                            00000005
INT2IF                            00000005
INT2SE                            00000007
INTCTL                            0000000B
INTEDGCTL                         00000067
INV1                              00000007
IOCL                              00000036
IOCL0                             00000000
IOCL1                             00000001
IOCL2                             00000002
IOCL3                             00000003
IOCL4                             00000004
IOCL5                             00000005
IP0                               00000022
IP1                               00000023
IP2                               00000024
IP3                               00000029
IPEN                              00000003
IRCS0                             00000004
IRCS1                             00000005
IRCS2                             00000006
LSPEN                             00000003
LTS                               00000004
LVR                               00000000
NVMADDRH                          0000003A
kf8asm-2.0.0                    key.asm                                  PAGE 39


LOC  OBJECT CODE     LINE SOURCE TEXT
  VALUE
 
NVMADDRL                          0000003B
NVMCTL0                           0000003C
NVMCTL1                           0000003D
NVMDATAH                          00000038
NVMDATAL                          00000039
OPTR                              00000021
OSCCAL0                           00000030
OSCCAL1                           00000037
OSCCAL2                           0000004C
OSCCAL3                           0000004D
OSCCTL                            0000002F
OSCFAILIE                         00000005
OSCFAILIF                         00000005
OSCSTA                            00000028
OSTS                              00000006
OVFER                             00000001
P0                                00000005
P00                               00000000
P01                               00000001
P02                               00000002
P03                               00000003
P04                               00000004
P05                               00000005
P0IE                              00000003
P0IF                              00000000
P0LR                              00000045
P0LR0                             00000000
P0LR1                             00000001
P0LR2                             00000002
P0LR4                             00000004
P0LR5                             00000005
P1                                00000007
P10                               00000000
P11                               00000001
P12                               00000002
P13                               00000003
P14                               00000004
P15                               00000005
P16                               00000006
P17                               00000007
P1LR                              00000047
P1LR0                             00000000
P1LR1                             00000001
P1LR2                             00000002
P1LR3                             00000003
P1LR4                             00000004
P1LR5                             00000005
P1LR6                             00000006
P1LR7                             00000007
P2                                00000006
P20                               00000000
P21                               00000001
P22                               00000002
P23                               00000003
kf8asm-2.0.0                    key.asm                                  PAGE 40


LOC  OBJECT CODE     LINE SOURCE TEXT
  VALUE
 
P2LR                              00000046
P2LR0                             00000000
P2LR1                             00000001
P2LR2                             00000002
P2LR3                             00000003
PADC                              00000006
PBCL                              00000001
PC1                               00000003
PCH                               0000000A
PCL                               00000002
PCTL                              0000002E
PD                                00000003
PINT0                             00000001
PINT1                             00000004
PINT2                             00000005
POR                               00000001
POSCFAIL                          00000005
PP0                               00000000
PP1                               00000016
PP2                               00000032
PPWM2                             00000002
PR0                               00000000
PR1                               00000001
PR2                               00000002
PR3                               00000003
PRC                               00000005
PRSGEN                            00000005
PRSGM0                            00000003
PRSGM1                            00000004
PRSGSTA                           00000002
PS0                               00000000
PS1                               00000001
PS2                               00000002
PSA                               00000003
PSSCI                             00000000
PSW                               00000003
PT0                               00000002
PT1                               00000000
PT3                               00000007
PT4                               00000007
PTX                               00000004
PUIE                              00000006
PUPH                              00000007
PUR0                              00000035
PUR00                             00000000
PUR01                             00000001
PUR02                             00000002
PUR04                             00000004
PUR05                             00000005
PUR1                              00000060
PUR10                             00000000
PUR11                             00000001
PUR12                             00000002
PUR13                             00000003
kf8asm-2.0.0                    key.asm                                  PAGE 41


LOC  OBJECT CODE     LINE SOURCE TEXT
  VALUE
 
PUR14                             00000004
PUR15                             00000005
PUR16                             00000006
PUR17                             00000007
PUR2                              00000061
PUR20                             00000000
PUR21                             00000001
PUR22                             00000002
PUR23                             00000003
PWM1L                             00000013
PWM1ON                            00000000
PWM2IE                            00000002
PWM2IF                            00000002
PWM2L                             00000033
PWM2ON                            00000004
PWMCTL                            00000015
PWMS                              00000003
RC32KCAL                          00000165
RCIDLF                            00000006
RCIE                              00000005
RCIF                              00000005
RESTARTEN                         00000001
RSCTL                             00000120
RSEL0                             00000000
RSEL1                             00000001
RSEL2                             00000002
RSEL3                             00000003
RX9                               00000006
RX9D                              00000000
RXSDR                             00000122
SCF0                              00000000
SCF1                              00000001
SCKPS                             00000005
SCS0                              00000002
SCS1                              00000003
SENDB                             00000003
SLVREN                            00000004
SPEN                              00000007
SRXEN                             00000005
SSCIACKDAT                        00000005
SSCIACKEN                         00000004
SSCIACKSTA                        00000006
SSCIADD                           0000012E
SSCIBUF                           00000000
SSCIBUFR                          0000012C
SSCICALLEN                        00000007
SSCICKP                           00000004
SSCICTL0                          00000128
SSCICTL1                          0000012A
SSCIDA                            00000005
SSCIEN                            00000005
SSCIIE                            00000000
SSCIIF                            00000000
SSCIMOD0                          00000000
kf8asm-2.0.0                    key.asm                                  PAGE 42


LOC  OBJECT CODE     LINE SOURCE TEXT
  VALUE
 
SSCIMOD1                          00000001
SSCIMOD2                          00000002
SSCIMOD3                          00000003
SSCIMSK                           0000012E
SSCIMSK0                          00000000
SSCIMSK1                          00000001
SSCIMSK2                          00000002
SSCIMSK3                          00000003
SSCIMSK4                          00000004
SSCIMSK5                          00000005
SSCIMSK6                          00000006
SSCIMSK7                          00000007
SSCIOV                            00000006
SSCIPIN                           00000007
SSCIRCEN                          00000003
SSCIRW                            00000002
SSCISTA                           0000012B
SSCISTART                         00000003
SSCISTOP                          00000004
SSCIUA                            00000001
SSCIWCFL                          00000007
START                             00000001
STARTEN                           00000000
STK00                             00000000
STK01                             00000000
STK02                             00000000
STK03                             00000000
STK04                             00000000
STK05                             00000000
STK06                             00000000
STK07                             00000000
STK08                             00000000
STK09                             00000000
STK10                             00000000
STK11                             00000000
STK12                             00000000
STOPEN                            00000002
SWDTEN                            00000002
SYNC                              00000004
T0                                00000001
T0CS                              00000005
T0IE                              00000005
T0IF                              00000002
T0SE                              00000004
T1CKS0                            00000004
T1CKS1                            00000005
T1CLKEN                           00000000
T1CS                              00000001
T1CTL                             00000010
T1GC                              00000006
T1H                               0000000F
T1IE                              00000000
T1IF                              00000000
T1L                               0000000E
kf8asm-2.0.0                    key.asm                                  PAGE 43


LOC  OBJECT CODE     LINE SOURCE TEXT
  VALUE
 
T1ON                              00000000
T1OSCEN                           00000003
T1RLD                             00000007
T1SY                              00000002
T3CKS0                            00000005
T3CKS1                            00000006
T3CLR                             00000005
T3CS                              00000004
T3CTL                             0000004E
T3EN                              00000007
T3H                               0000005F
T3IE                              00000007
T3IF                              00000007
T3L                               0000004F
T4CKS0                            00000004
T4CKS1                            00000005
T4CS0                             00000001
T4CS1                             00000002
T4CTL                             00000164
T4H                               00000161
T4IE                              00000007
T4IF                              00000007
T4L                               00000160
T4ON                              00000000
T4REH                             00000163
T4REL                             00000162
T4REN                             00000007
TO                                00000004
TR0                               00000025
TR00                              00000000
TR01                              00000001
TR02                              00000002
TR03                              00000003
TR04                              00000004
TR05                              00000005
TR1                               00000027
TR10                              00000000
TR11                              00000001
TR12                              00000002
TR13                              00000003
TR14                              00000004
TR15                              00000005
TR16                              00000006
TR17                              00000007
TR2                               00000026
TR20                              00000000
TR21                              00000001
TR22                              00000002
TR23                              00000003
TSCTL                             00000124
TX9                               00000006
TX9D                              00000000
TXEN                              00000005
TXIE                              00000004
kf8asm-2.0.0                    key.asm                                  PAGE 44


LOC  OBJECT CODE     LINE SOURCE TEXT
  VALUE
 
TXIF                              00000004
TXSDR                             00000121
TXSRS                             00000001
UARTPIN                           00000002
VCEN                              00000006
VCFG0                             00000002
VCFG1                             00000003
VDAC                              00000112
VDAC0                             00000004
VDAC1                             00000005
VDAC2                             00000006
VDAC3                             00000007
VDACS                             0000001A
VRECAL1                           0000002A
VRECAL2                           00000159
VRECAL3                           0000015A
VRECALEN                          00000005
VRECKEN                           00000004
VRECTL                            0000002B
VREEN                             00000001
VREOE                             00000003
VRES                              00000113
VRES0                             00000004
VRES1                             00000005
VRES2                             00000006
VRES3                             00000007
VRESEL0                           00000006
VRESEL1                           00000007
VSEL                              00000000
WDTPS                             0000012F
WDTPS0                            00000000
WDTPS1                            00000001
WDTPS2                            00000002
WDTPS3                            00000003
WEN1                              00000006
WUEN                              00000001
Z                                 00000002
_00003_DS_                        00000025
_00006_DS_                        00000033
_00007_DS_                        00000037
_00010_DS_                        00000041
_00012_DS_                        00000043
_00013_DS_                        00000062
_00016_DS_                        00000070
_00017_DS_                        00000074
_00020_DS_                        0000007E
_00023_DS_                        00000080
_00032_DS_                        00000021
_00034_DS_                        0000005E
_00036_DS_                        0000000F
_00039_DS_                        00000018
_00044_DS_                        00000039
_00047_DS_                        0000004F
_00049_DS_                        00000071
kf8asm-2.0.0                    key.asm                                  PAGE 45


LOC  OBJECT CODE     LINE SOURCE TEXT
  VALUE
 
_00056_DS_                        00000087
_ABRDEN                           00000000
_ABRDOVF                          00000007
_ADCALEN                          00000007
_ADCCTL0                          00000000
_ADCCTL0_bits                     00000000
_ADCCTL1                          00000000
_ADCCTL1_bits                     00000000
_ADCDATA0H                        00000000
_ADCDATA0L                        00000000
_ADCIM                            00000000
_ADCS0                            00000004
_ADCS1                            00000005
_ADCS2                            00000006
_ADC_Init                         00000000
_ADEN                             00000000
_ADIE                             00000006
_ADIF                             00000006
_ADLR                             00000007
_ADREN                            00000003
_AIE                              00000007
_AIEH                             00000007
_AIEL                             00000006
_AMPCTL                           00000000
_AMPCTL_bits                      00000000
_AMPDT                            00000000
_AMPDT_bits                       00000000
_AMPON                            00000000
_ANS0                             00000000
_ANS1                             00000001
_ANS10                            00000002
_ANS11                            00000003
_ANS12                            00000004
_ANS13                            00000005
_ANS2                             00000002
_ANS3                             00000003
_ANS4                             00000004
_ANS5                             00000005
_ANS6                             00000006
_ANS7                             00000007
_ANS8                             00000000
_ANS9                             00000001
_ANSEH                            00000000
_ANSEH_bits                       00000000
_ANSEL                            00000000
_ANSEL_bits                       00000000
_Adc_read                         00000000
_BANK                             00000000
_BANK_bits                        00000000
_BAT_StateGet                     00000000
_BCLIE                            00000001
_BCLIF                            00000001
_BRCTL                            00000000
_BRCTL_bits                       00000000
kf8asm-2.0.0                    key.asm                                  PAGE 46


LOC  OBJECT CODE     LINE SOURCE TEXT
  VALUE
 
_BRG16                            00000004
_Baseline_Update_Cnt_lib          00000000
_C1CAL                            00000000
_C1CALEN                          00000003
_C1CALSET                         00000002
_C1CAL_bits                       00000000
_C1CTL                            00000000
_C1CTL_bits                       00000000
_C1DT0                            00000000
_C1DT1                            00000001
_C1DT2                            00000002
_C1DT3                            00000003
_C1DT4                            00000004
_C1DT5                            00000005
_C1DT6                            00000006
_C1DT7                            00000007
_C1EN                             00000000
_C1FILTCTL                        00000000
_C1FILTCTL_bits                   00000000
_C1FILTPRE                        00000000
_C1FILTPRE_bits                   00000000
_C1IE                             00000003
_C1IF                             00000003
_C1MOD                            00000006
_C1OE                             00000007
_C1OUT                            00000001
_CALID                            00000007
_CALIEN                           00000001
_CHS0                             00000002
_CHS1                             00000003
_CHS2                             00000004
_CHS3                             00000005
_CLKOE                            00000007
_CRXEN                            00000004
_CSRS                             00000007
_CTCHSEL0                         00000000
_CTCHSEL1                         00000001
_CTCHSEL2                         00000002
_CTCHSEL3                         00000003
_CTCHSEL4                         00000004
_CTCLKSEL0                        00000006
_CTCLKSEL1                        00000007
_CTCTL0                           00000000
_CTCTL0_bits                      00000000
_CTCTL1                           00000000
_CTCTL1_bits                      00000000
_CTCTL2                           00000000
_CTCTL2_bits                      00000000
_CTEN                             00000007
_CTMODE                           00000004
_CTOUCH_VDAC_Tab                  00000000
_CTSTART                          00000006
_CTouch_Channel_Tab               00000000
_CTouch_Disturb_Noise_threshold_Tab  00000000
kf8asm-2.0.0                    key.asm                                  PAGE 47


LOC  OBJECT CODE     LINE SOURCE TEXT
  VALUE
 
_CTouch_Max_Threshold_Tab         00000000
_CTouch_Negative_Noise_threshold_Tab  00000000
_CTouch_Noise_threshold_Tab       00000000
_CTouch_Second_Key_Threshold_Tab  00000000
_CTouch_Single_Hysteresis_Tab     00000000
_CTouch_Steady_Noise_threshold_Tab  00000000
_CTouch_Threshold_Tab             00000000
_CY                               00000000
_Channel_Num_lib                  00000000
_Channel_Press_str                00000000
_Clock_ClearSysLEDTimeStatus      00000000
_Clock_GetSysLEDTimeStatus        00000000
_DC                               00000001
_DT0                              00000000
_DT1                              00000001
_DT2                              00000002
_DT3                              00000003
_DT4                              00000004
_DT5                              00000005
_DT6                              00000006
_DT7                              00000007
_Data_Change_Disturb_Max_Channel  00000000
_Data_Stream_Enable_lib           00000000
_DoorState_Deal                   00000000
_DoorState_Init                   00000000
_Door_StatusGet                   00000000
_EIE1                             00000000
_EIE1_bits                        00000000
_EIE2                             00000000
_EIE2_bits                        00000000
_EIE3                             00000000
_EIE3_bits                        00000000
_EIF1                             00000000
_EIF1_bits                        00000000
_EIF2                             00000000
_EIF2_bits                        00000000
_EIF3                             00000000
_EIF3_bits                        00000000
_EUBRGH                           00000000
_EUBRGL                           00000000
_F1CNT0                           00000000
_F1CNT1                           00000001
_F1CNT2                           00000002
_FEN1                             00000005
_FLASH_BUFFER                     00000000
_FLASH_Deal                       00000000
_FLASH_Init                       00000000
_FLASH_READ_FUN                   00000000
_FLASH_READ_ONE                   00000000
_FLASH_WRITE_FUN                  00000000
_FLASH_WRITE_ONE                  00000000
_FP10                             00000000
_FP11                             00000001
_FP12                             00000002
kf8asm-2.0.0                    key.asm                                  PAGE 48


LOC  OBJECT CODE     LINE SOURCE TEXT
  VALUE
 
_FP13                             00000003
_FP14                             00000004
_FP15                             00000005
_FP16                             00000006
_FP17                             00000007
_FRER                             00000002
_FSCM                             00000000
_Flash_data_set                   00000000
_HBRG                             00000002
_HSPEN                            00000006
_HTS                              00000005
_IESO                             00000001
_INPS0                            00000004
_INPS1                            00000005
_INT0IE                           00000004
_INT0IF                           00000001
_INT0SE                           00000006
_INT1IE                           00000004
_INT1IF                           00000004
_INT1SE                           00000006
_INT2IE                           00000005
_INT2IF                           00000005
_INT2SE                           00000007
_INTCTL                           00000000
_INTCTL_bits                      00000000
_INTEDGCTL                        00000000
_INTEDGCTL_bits                   00000000
_INV1                             00000007
_IOCL                             00000000
_IOCL0                            00000000
_IOCL1                            00000001
_IOCL2                            00000002
_IOCL3                            00000003
_IOCL4                            00000004
_IOCL5                            00000005
_IOCL_bits                        00000000
_IP0                              00000000
_IP0_bits                         00000000
_IP1                              00000000
_IP1_bits                         00000000
_IP2                              00000000
_IP2_bits                         00000000
_IP3                              00000000
_IP3_bits                         00000000
_IPEN                             00000003
_IRCS0                            00000004
_IRCS1                            00000005
_IRCS2                            00000006
_Init_I2C_S                       00000000
_Init_MCU                         00000000
_Init_Touch                       00000000
_Init_Touch_GPIO                  00000000
_Init_Usart                       00000000
_Key_Code                         00000000
kf8asm-2.0.0                    key.asm                                  PAGE 49


LOC  OBJECT CODE     LINE SOURCE TEXT
  VALUE
 
_Key_Error_Code                   00000000
_LSPEN                            00000003
_LTS                              00000004
_LVR                              00000000
_Max_Key_Cnt_Lib                  00000000
_NVMADDRH                         00000000
_NVMADDRL                         00000000
_NVMCTL0                          00000000
_NVMCTL1                          00000000
_NVMDATAH                         00000000
_NVMDATAL                         00000000
_ON_debounce_times_lib            00000000
_OPTR                             00000000
_OPTR_bits                        00000000
_OSCCAL0                          00000000
_OSCCAL1                          00000000
_OSCCAL2                          00000000
_OSCCAL3                          00000000
_OSCCTL                           00000000
_OSCCTL_bits                      00000000
_OSCFAILIE                        00000005
_OSCFAILIF                        00000005
_OSCSTA                           00000000
_OSCSTA_bits                      00000000
_OSTS                             00000006
_OVFER                            00000001
_P0                               00000000
_P00                              00000000
_P01                              00000001
_P02                              00000002
_P03                              00000003
_P04                              00000004
_P05                              00000005
_P0IE                             00000003
_P0IF                             00000000
_P0LR                             00000000
_P0LR0                            00000000
_P0LR1                            00000001
_P0LR2                            00000002
_P0LR4                            00000004
_P0LR5                            00000005
_P0LR_bits                        00000000
_P0_INT_init                      00000000
_P0_bits                          00000000
_P1                               00000000
_P10                              00000000
_P11                              00000001
_P12                              00000002
_P13                              00000003
_P14                              00000004
_P15                              00000005
_P16                              00000006
_P17                              00000007
_P1LR                             00000000
kf8asm-2.0.0                    key.asm                                  PAGE 50


LOC  OBJECT CODE     LINE SOURCE TEXT
  VALUE
 
_P1LR0                            00000000
_P1LR1                            00000001
_P1LR2                            00000002
_P1LR3                            00000003
_P1LR4                            00000004
_P1LR5                            00000005
_P1LR6                            00000006
_P1LR7                            00000007
_P1LR_bits                        00000000
_P1_bits                          00000000
_P2                               00000000
_P20                              00000000
_P21                              00000001
_P22                              00000002
_P23                              00000003
_P2LR                             00000000
_P2LR0                            00000000
_P2LR1                            00000001
_P2LR2                            00000002
_P2LR3                            00000003
_P2LR_bits                        00000000
_P2_bits                          00000000
_PADC                             00000006
_PBCL                             00000001
_PC1                              00000003
_PCH                              00000000
_PCL                              00000000
_PCTL                             00000000
_PCTL_bits                        00000000
_PD                               00000003
_PINT0                            00000001
_PINT1                            00000004
_PINT2                            00000005
_POR                              00000001
_POSCFAIL                         00000005
_PP0                              00000000
_PP1                              00000000
_PP2                              00000000
_PPWM2                            00000002
_PR0                              00000000
_PR1                              00000001
_PR2                              00000002
_PR3                              00000003
_PRC                              00000005
_PRSGEN                           00000005
_PRSGM0                           00000003
_PRSGM1                           00000004
_PRSGSTA                          00000002
_PS0                              00000000
_PS1                              00000001
_PS2                              00000002
_PSA                              00000003
_PSSCI                            00000000
_PSW                              00000000
kf8asm-2.0.0                    key.asm                                  PAGE 51


LOC  OBJECT CODE     LINE SOURCE TEXT
  VALUE
 
_PSW_bits                         00000000
_PT0                              00000002
_PT1                              00000000
_PT3                              00000007
_PT4                              00000007
_PTX                              00000004
_PUIE                             00000006
_PUPH                             00000007
_PUR0                             00000000
_PUR00                            00000000
_PUR01                            00000001
_PUR02                            00000002
_PUR04                            00000004
_PUR05                            00000005
_PUR0_bits                        00000000
_PUR1                             00000000
_PUR10                            00000000
_PUR11                            00000001
_PUR12                            00000002
_PUR13                            00000003
_PUR14                            00000004
_PUR15                            00000005
_PUR16                            00000006
_PUR17                            00000007
_PUR1_bits                        00000000
_PUR2                             00000000
_PUR20                            00000000
_PUR21                            00000001
_PUR22                            00000002
_PUR23                            00000003
_PUR2_bits                        00000000
_PWM1L                            00000000
_PWM1ON                           00000000
_PWM2IE                           00000002
_PWM2IF                           00000002
_PWM2L                            00000000
_PWM2ON                           00000004
_PWMCTL                           00000000
_PWMCTL_bits                      00000000
_PWMS                             00000003
_Press_On_Max_Time_lib            00000000
_Protect_Mode_Release_Time_lib    00000000
_RC32KCAL                         00000000
_RCIDLF                           00000006
_RCIE                             00000005
_RCIF                             00000005
_RESTARTEN                        00000001
_RSCTL                            00000000
_RSCTL_bits                       00000000
_RSEL0                            00000000
_RSEL1                            00000001
_RSEL2                            00000002
_RSEL3                            00000003
_RX9                              00000006
kf8asm-2.0.0                    key.asm                                  PAGE 52


LOC  OBJECT CODE     LINE SOURCE TEXT
  VALUE
 
_RX9D                             00000000
_RXSDR                            00000000
_Ref_Channel_Enable_lib           00000000
_SCF0                             00000000
_SCF1                             00000001
_SCKPS                            00000005
_SCS0                             00000002
_SCS1                             00000003
_SENDB                            00000003
_SLVREN                           00000004
_SPEN                             00000007
_SRXEN                            00000005
_SSCIACKDAT                       00000005
_SSCIACKEN                        00000004
_SSCIACKSTA                       00000006
_SSCIADD                          00000000
_SSCIBUF                          00000000
_SSCIBUFR                         00000000
_SSCICALLEN                       00000007
_SSCICKP                          00000004
_SSCICTL0                         00000000
_SSCICTL0_bits                    00000000
_SSCICTL1                         00000000
_SSCICTL1_bits                    00000000
_SSCIDA                           00000005
_SSCIEN                           00000005
_SSCIIE                           00000000
_SSCIIF                           00000000
_SSCIMOD0                         00000000
_SSCIMOD1                         00000001
_SSCIMOD2                         00000002
_SSCIMOD3                         00000003
_SSCIMSK                          00000000
_SSCIMSK0                         00000000
_SSCIMSK1                         00000001
_SSCIMSK2                         00000002
_SSCIMSK3                         00000003
_SSCIMSK4                         00000004
_SSCIMSK5                         00000005
_SSCIMSK6                         00000006
_SSCIMSK7                         00000007
_SSCIMSK_bits                     00000000
_SSCIOV                           00000006
_SSCIPIN                          00000007
_SSCIRCEN                         00000003
_SSCIRW                           00000002
_SSCISTA                          00000000
_SSCISTART                        00000003
_SSCISTA_bits                     00000000
_SSCISTOP                         00000004
_SSCIUA                           00000001
_SSCIWCFL                         00000007
_START                            00000001
_STARTEN                          00000000
kf8asm-2.0.0                    key.asm                                  PAGE 53


LOC  OBJECT CODE     LINE SOURCE TEXT
  VALUE
 
_STK00                            00000000
_STK01                            00000000
_STK02                            00000000
_STK03                            00000000
_STK04                            00000000
_STK05                            00000000
_STK06                            00000000
_STK07                            00000000
_STK08                            00000000
_STK09                            00000000
_STK10                            00000000
_STK11                            00000000
_STK12                            00000000
_STKR0                            00000000
_STOPEN                           00000002
_SWDTEN                           00000002
_SYNC                             00000004
_T0                               00000000
_T0CS                             00000005
_T0IE                             00000005
_T0IF                             00000002
_T0SE                             00000004
_T1CKS0                           00000004
_T1CKS1                           00000005
_T1CLKEN                          00000000
_T1CS                             00000001
_T1CTL                            00000000
_T1CTL_bits                       00000000
_T1GC                             00000006
_T1H                              00000000
_T1IE                             00000000
_T1IF                             00000000
_T1L                              00000000
_T1ON                             00000000
_T1OSCEN                          00000003
_T1RLD                            00000007
_T1SY                             00000002
_T3CKS0                           00000005
_T3CKS1                           00000006
_T3CLR                            00000005
_T3CS                             00000004
_T3CTL                            00000000
_T3CTL_bits                       00000000
_T3EN                             00000007
_T3H                              00000000
_T3IE                             00000007
_T3IF                             00000007
_T3L                              00000000
_T4CKS0                           00000004
_T4CKS1                           00000005
_T4CS0                            00000001
_T4CS1                            00000002
_T4CTL                            00000000
_T4CTL_bits                       00000000
kf8asm-2.0.0                    key.asm                                  PAGE 54


LOC  OBJECT CODE     LINE SOURCE TEXT
  VALUE
 
_T4H                              00000000
_T4IE                             00000007
_T4IF                             00000007
_T4L                              00000000
_T4ON                             00000000
_T4REH                            00000000
_T4REL                            00000000
_T4REN                            00000007
_TO                               00000004
_TR0                              00000000
_TR00                             00000000
_TR01                             00000001
_TR02                             00000002
_TR03                             00000003
_TR04                             00000004
_TR05                             00000005
_TR0_bits                         00000000
_TR1                              00000000
_TR10                             00000000
_TR11                             00000001
_TR12                             00000002
_TR13                             00000003
_TR14                             00000004
_TR15                             00000005
_TR16                             00000006
_TR17                             00000007
_TR1_bits                         00000000
_TR2                              00000000
_TR20                             00000000
_TR21                             00000001
_TR22                             00000002
_TR23                             00000003
_TR2_bits                         00000000
_TSCTL                            00000000
_TSCTL_bits                       00000000
_TX9                              00000006
_TX9D                             00000000
_TXEN                             00000005
_TXIE                             00000004
_TXIF                             00000004
_TXSDR                            00000000
_TXSRS                            00000001
_Timer0_Init                      00000000
_Timer1_Init                      00000000
_Timer4_Init                      00000000
_Touch_Int_Flg                    00000000
_UARTPIN                          00000002
_UART_SendBuf                     00000000
_USART_Send_num                   00000000
_VCEN                             00000006
_VCFG0                            00000002
_VCFG1                            00000003
_VDAC                             00000000
_VDAC0                            00000004
kf8asm-2.0.0                    key.asm                                  PAGE 55


LOC  OBJECT CODE     LINE SOURCE TEXT
  VALUE
 
_VDAC1                            00000005
_VDAC2                            00000006
_VDAC3                            00000007
_VDACS                            00000000
_VDACS_bits                       00000000
_VDAC_bits                        00000000
_VRECAL1                          00000000
_VRECAL2                          00000000
_VRECAL3                          00000000
_VRECALEN                         00000005
_VRECKEN                          00000004
_VRECTL                           00000000
_VRECTL_bits                      00000000
_VREEN                            00000001
_VREOE                            00000003
_VRES                             00000000
_VRES0                            00000004
_VRES1                            00000005
_VRES2                            00000006
_VRES3                            00000007
_VRESEL0                          00000006
_VRESEL1                          00000007
_VRES_bits                        00000000
_VSEL                             00000000
_WDTPS                            00000000
_WDTPS0                           00000000
_WDTPS1                           00000001
_WDTPS2                           00000002
_WDTPS3                           00000003
_WDTPS_bits                       00000000
_WEN1                             00000006
_WUEN                             00000001
_Z                                00000002
__CTouch_Get_Baseline_            00000000
__CTouch_Get_Lib_Version_         00000000
__CTouch_Get_RawData_             00000000
__CTouch_Key_Init_                00000000
__CTouch_Scan_Process_            00000000
__Parameter_Init_                 00000000
__kf8a100eng                      00000001
_delay_ms                         00000000
_delay_us                         00000000
_func._key_deal_0002              00000002
_func._key_deal_0005              00000005
_func._key_deal_000F              0000000F
_func._key_deal_002D              0000002D
_func._key_deal_0037              00000037
_func._key_deal_0044              00000044
_func._key_deal_004E              0000004E
_func._key_deal_0065              00000065
_func._key_deal_006F              0000006F
_func._key_deal_007C              0000007C
_func._key_deal_0086              00000086
_func._key_read_0002              00000002
kf8asm-2.0.0                    key.asm                                  PAGE 56


LOC  OBJECT CODE     LINE SOURCE TEXT
  VALUE
 
_get_pwmduty                      00000000
_key_deal                         00000000
_key_init                         00000000
_key_read                         00000000
_key_state                        00000000
_key_state2                       00000000
_key_state_set                    00000000
_key_status                       00000000
_key_status2                      00000000
_key_value                        00000000
_led_deal                         00000000
_processLED                       00000000
_pwm_deal                         00000000
_set_PWM1L                        00000000
_set_PWM2L                        00000000
_set_led                          00000000
_set_savefalg                     00000000
_timer_init                       00000000
r0x100C                           00000000
r0x100D                           00000000
r0x100E                           00000000
r0x100F                           00000000
_STK00                            STK00
_STK01                            STK01
_STK02                            STK02
_STK03                            STK03
_STK04                            STK04
_STK05                            STK05
_STK06                            STK06
_STK07                            STK07
_STK08                            STK08
_STK09                            STK09
_STK10                            STK10
_STK11                            STK11
_STK12                            STK12


Errors   :       0
Warnings :       0 reported,       0 suppressed
Messages :       0 reported,       0 suppressed

